Archive member included because of file (symbol)

code\libs\dec_lib_ac46.a(music_api.o)
                              obj\Debug\\code\apps\music\music.o (music_play)
code\libs\dec_lib_ac46.a(sup_dec_op.o)
                              code\libs\dec_lib_ac46.a(music_api.o) (set_music_sr)
code\libs\dec_lib_ac46.a(decoder_phy.o)
                              obj\Debug\\code\common\ui\led7_drv.o (get_decode_time)
code\libs\cbuf.a(circular_buf.o)
                              obj\Debug\\code\cpu\ac46\driver\dac.o (cbuf_read)
code\libs\lib_dac.a(dac_init.o)
                              obj\Debug\\code\cpu\ac46\driver\dac.o (adda_analog_init)
code\libs\lib_dac.a(dac_channel.o)
                              obj\Debug\\code\apps\bt\btstack\bt_key_deal.o (dac_digt_ctl)
code\libs\sys_cfg_ac46.a(pll.o)
                              obj\Debug\\code\cpu\ac46\driver\clock.o (set_tick_timer)
code\libs\sys_cfg_ac46.a(reg.o)
                              obj\Debug\\code\common\printf-stdarg.o (__udivsi3)
code\libs\sys_cfg_ac46.a(startup.o)
                              obj\Debug\\code\cpu\ac46\driver\timer.o (handle__timer0_isr)
code\libs\sys_cfg_ac46.a(system_cfg_file.o)
                              obj\Debug\\code\apps\main\main.o (system_cfg_file_init)
code\libs\sys_cfg_ac46.a(hwi.o)
                              obj\Debug\\code\apps\bt\btstack\fcc_test.o (clear_ie)
code\libs\sys_cfg_ac46.a(irq.o)
                              code\libs\sys_cfg_ac46.a(startup.o) (soft_irq_handler)
code\libs\sys_cfg_ac46.a(system_cfg.o)
                              code\libs\sys_cfg_ac46.a(system_cfg_file.o) (system_cfg_init)
code\libs\aec_ac46.a(aec.o)   obj\Debug\\code\apps\bt\aec\aec_api.o (set_agc_params)
code\libs\aec_ac46.a(aec_tst_sd.o)
                              code\libs\aec_ac46.a(aec.o) (aec_tst_task_init)
code\libs\aec_ac46.a(cdn3_btsyn.o)
                              code\libs\aec_ac46.a(aec.o) (init_aec_syn)
code\libs\aec_ac46.a(AGC.o)   code\libs\aec_ac46.a(aec.o) (aec_new_agc)
code\libs\libSpeech_dection.a(Speech_detection.o)
                              code\libs\aec_ac46.a(aec.o) (Speech_detection_QueryBufSize)
code\libs\libDAGC.a(DAGC.o)   code\libs\aec_ac46.a(aec.o) (DAGC_QuaryBufSize)
code\libs\libDAGC.a(AGC.o)    code\libs\libDAGC.a(DAGC.o) (Agc_Init)
code\libs\libsbcdeocode.a(new_sbcdec.o)
                              code\libs\dec_lib_ac46.a(decoder_phy.o) (get_sbc_ops)
code\libs\lib_mp3_decode.a(mtst_mp3.o)
                              code\libs\dec_lib_ac46.a(decoder_phy.o) (get_mp3_ops)
code\libs\lib_mp3_decode.a(ID3tag_skip.o)
                              code\libs\lib_mp3_decode.a(mtst_mp3.o) (id3_tag_query)
code\libs\lib_mp3_decode.a(mpegaudio.o)
                              code\libs\lib_mp3_decode.a(mtst_mp3.o) (get_bit_stream_len)
code\libs\lib_mp3_decode.a(layer3.o)
                              code\libs\lib_mp3_decode.a(mpegaudio.o) (III_sideinfo)
code\libs\lib_mp3_decode.a(mpeg_ctab.o)
                              code\libs\lib_mp3_decode.a(mpegaudio.o) (pre_decode)
code\libs\lib_mp3_decode.a(mpeg_synth.o)
                              code\libs\lib_mp3_decode.a(layer3.o) (mpegaudio_synth_full)
code\libs\lib_mp3_decode.a(huffman.o)
                              code\libs\lib_mp3_decode.a(layer3.o) (mad_huff_quad_table)
code\libs\lib_mp3_decode.a(layer12.o)
                              code\libs\lib_mp3_decode.a(mpeg_ctab.o) (mad_layer_I)
code\libs\lib_wav_decode.a(testwav.o)
                              code\libs\dec_lib_ac46.a(decoder_phy.o) (get_wav_ops)
code\libs\lib_wav_decode.a(wavdec_api.o)
                              code\libs\lib_wav_decode.a(testwav.o) (wf_file_api)
code\libs\lib_wav_decode.a(ima_adpcm.o)
                              code\libs\lib_wav_decode.a(wavdec_api.o) (ima_adpcm_decoder)
code\libs\lib_wav_decode.a(msadpcmdec.o)
                              code\libs\lib_wav_decode.a(wavdec_api.o) (ms_adpcm_decoder)
code\libs\ef_api_ac46.a(audio_ef.o)
                              code\libs\lib_dac.a(dac_channel.o) (digital_vol_tab)
code\libs\lib_audio_effect.a(effect_api.o)
                              code\libs\ef_api_ac46.a(audio_ef.o) (get_effect_ops)
code\libs\lib_audio_effect.a(eq.o)
                              code\libs\lib_audio_effect.a(effect_api.o) (set_eq_filt)
code\libs\lib_audio_effect.a(resample.o)
                              code\libs\lib_audio_effect.a(effect_api.o) (change_resample_coeff)
code\libs\lib_audio_effect.a(resample_8.o)
                              code\libs\lib_audio_effect.a(effect_api.o) (change_resample8_coeff)
code\libs\lib_audio_effect.a(resample_qk.o)
                              code\libs\lib_audio_effect.a(effect_api.o) (change_resampleQ_coeff)
code\libs\lib_audio_effect.a(vol.o)
                              code\libs\lib_audio_effect.a(effect_api.o) (config_energy_coef)
code\libs\lib_wma_decode.a(mtst_wma.o)
                              code\libs\dec_lib_ac46.a(decoder_phy.o) (get_wma_ops)
code\libs\lib_wma_decode.a(wma.o)
                              code\libs\lib_wma_decode.a(mtst_wma.o) (wma_decode_init)
code\libs\lib_wma_decode.a(wma_huff.o)
                              code\libs\lib_wma_decode.a(wma.o) (coef0_huff)
code\libs\lib_wma_decode.a(wma_tab.o)
                              code\libs\lib_wma_decode.a(mtst_wma.o) (ff_mpa_freq_tab_wma)
code\libs\lib_wma_decode.a(wmadec.o)
                              code\libs\lib_wma_decode.a(wma.o) (wma_av_log2)
code\libs\lib_wma_decode.a(asf.o)
                              code\libs\lib_wma_decode.a(mtst_wma.o) (asf_read_header)
code\libs\lib_wma_decode.a(aviobuf.o)
                              code\libs\lib_wma_decode.a(wmadec.o) (wmafillbuf)
code\libs\lib_wma_decode.a(bitstream.o)
                              code\libs\lib_wma_decode.a(wmadec.o) (huffdec)
code\libs\lib_wma_decode.a(mdct.o)
                              code\libs\lib_wma_decode.a(wmadec.o) (wma_dec_dsp0)
code\libs\lib_wma_decode.a(dv_wma.o)
                              code\libs\lib_wma_decode.a(mdct.o) (wma_reorder)
code\libs\dev_mg_lib.a(drv_manage.o)
                              obj\Debug\\code\common\dev_manage\dev_ctl.o (dev_register)
code\libs\dev_mg_lib.a(mango_dev_cache.o)
                              obj\Debug\\code\cpu\ac46\board\board_bt15_v0.o (set_cache_base)
code\libs\dev_mg_lib.a(mbr.o)
                              code\libs\dev_mg_lib.a(drv_manage.o) (mbr_scan)
code\libs\dev_mg_lib.a(dev_updata_mode.o)
                              obj\Debug\\code\apps\usb_device\usb_device.o (dev_updata_mode)
code\libs\dev_mg_lib.a(dev_operate.o)
                              obj\Debug\\code\common\file_operate\file_operate.o (file_operate_get_total_lgdev)
code\libs\dev_mg_lib.a(fat_io.o)
                              code\libs\dev_mg_lib.a(drv_manage.o) (fat_drvie_check)
code\libs\dev_mg_lib.a(fs_io.o)
                              obj\Debug\\code\common\file_operate\file_operate.o (fs_folder_file)
code\libs\dev_mg_lib.a(logic_dev_list.o)
                              obj\Debug\\code\common\dev_manage\dev_ctl.o (lg_dev_list_init)
code\libs\dev_mg_lib.a(syd_io.o)
                              obj\Debug\\code\apps\music\ef_api.o (syd_drive_open)
code\libs\dev_mg_lib.a(vfs.o)
                              code\libs\dev_mg_lib.a(logic_dev_list.o) (vfs_open)
code\libs\libtff.a(ff_api.o)  code\libs\dev_mg_lib.a(fat_io.o) (fs_ext_setting)
code\libs\libtff.a(tff.o)     code\libs\dev_mg_lib.a(mbr.o) (ld_word_func)
code\libs\mem_ac46.a(mem_heap.o)
                              obj\Debug\\code\common\os_api\task_manage.o (get_malloc_stats)
code\libs\mem_ac46.a(sbrk.o)  code\libs\mem_ac46.a(mem_heap.o) (sbrk)
code\libs\mem_ac46.a(vmalloc.o)
                              code\libs\mem_ac46.a(sbrk.o) (vfill_tag)
code\libs\mem_ac46.a(pmalloc.o)
                              code\libs\mem_ac46.a(vmalloc.o) (pmalloc_init)
code\libs\sd.a(mango_dev_sd.o)
                              obj\Debug\\code\common\dev_manage\dev_ctl.o (dev_reg_sd0)
code\libs\sd.a(sd_controller_interface.o)
                              code\libs\sd.a(mango_dev_sd.o) (get_sd_dev_busy_status)
code\libs\sd.a(sd_global_var.o)
                              code\libs\sd.a(mango_dev_sd.o) (g_sd0_var_p)
code\libs\sd.a(sd_host_read.o)
                              code\libs\sd.a(mango_dev_sd.o) (sd0_read_go)
code\libs\sd.a(sd_host_read_end.o)
                              code\libs\sd.a(sd_controller_interface.o) (sd_read_end)
code\libs\sd.a(sd_host_unmount.o)
                              code\libs\sd.a(sd_controller_interface.o) (sd_unmount)
code\libs\sd.a(sd_host_write.o)
                              code\libs\sd.a(mango_dev_sd.o) (sd0_write_go)
code\libs\sd.a(sd_host_write_end.o)
                              code\libs\sd.a(sd_controller_interface.o) (sd_write_end)
code\libs\sd.a(sdmmc_init.o)  code\libs\sd.a(sd_controller_interface.o) (sd_init)
code\libs\sd.a(suspend_sdmmc.o)
                              code\libs\sd.a(sd_controller_interface.o) (sd_suspend)
code\libs\sd.a(sd_host_send_csd.o)
                              code\libs\sd.a(sd_controller_interface.o) (sd_get_capacity)
code\libs\sd.a(sd_host_stop_trans.o)
                              code\libs\sd.a(sd_host_read.o) (sd_host_stop_trans)
code\libs\sd.a(sd_host_hw.o)  code\libs\sys_cfg_ac46.a(startup.o) (sd0_isr)
code\libs\sd.a(sd_wait_idle.o)
                              code\libs\sd.a(sd_controller_interface.o) (sd_wait_idle)
code\libs\sd.a(sdmmc_det.o)   code\libs\sd.a(sd_controller_interface.o) (sd_is_online)
code\libs\sd.a(sd_host_reg.o)
                              code\libs\sd.a(sd_host_hw.o) (SD_8CLK_EN)
code\libs\sd.a(sd_read_start.o)
                              code\libs\sd.a(sd_host_read.o) (sd_read_start)
code\libs\sd.a(sd_send_command.o)
                              code\libs\sd.a(sd_host_read.o) (sd_send_command)
code\libs\sd.a(sd_write_start.o)
                              code\libs\sd.a(sd_host_write.o) (sd_write_start)
code\libs\sd.a(sd_host_status.o)
                              code\libs\sd.a(sd_controller_interface.o) (sd_host_status)
code\libs\sd.a(sd_host_init.o)
                              code\libs\sd.a(sdmmc_init.o) (sd_host_init)
code\libs\sd.a(sd_host_mount.o)
                              code\libs\sd.a(sdmmc_init.o) (sd_mount)
code\libs\sd.a(sd_host_timeout.o)
                              code\libs\sd.a(sd_host_stop_trans.o) (sd_host_timeout)
code\libs\sd.a(sd_init.o)     code\libs\sd.a(sd_host_mount.o) (sd_init_card)
code\libs\sd.a(sdmmc_host_set_bus_width.o)
                              code\libs\sd.a(sdmmc_init.o) (sd_set_bus_width)
code\libs\sd.a(sdmmc_host_set_hispeed.o)
                              code\libs\sd.a(sdmmc_init.o) (sd_set_hispeed)
code\libs\sd.a(mmc_host_send_rca.o)
                              code\libs\sd.a(sd_init.o) (mmc_host_send_rca)
code\libs\sd.a(mmc_host_set_bus_width.o)
                              code\libs\sd.a(sdmmc_host_set_bus_width.o) (mmc_host_set_bus_width)
code\libs\sd.a(mmc_host_set_hispeed.o)
                              code\libs\sd.a(sdmmc_host_set_hispeed.o) (mmc_host_set_hispeed)
code\libs\sd.a(sd_host_all_send_cid.o)
                              code\libs\sd.a(sd_init.o) (sd_host_all_send_cid)
code\libs\sd.a(sd_host_reset.o)
                              code\libs\sd.a(sd_init.o) (sd_host_reset)
code\libs\sd.a(sd_host_sd_status.o)
                              code\libs\sd.a(sdmmc_host_set_bus_width.o) (sd_host_sd_status)
code\libs\sd.a(sd_host_send_if_cond.o)
                              code\libs\sd.a(sd_init.o) (sd_host_send_if_cond)
code\libs\sd.a(sd_host_send_rca.o)
                              code\libs\sd.a(sd_init.o) (sd_host_send_rca)
code\libs\sd.a(sd_host_set_bus_width.o)
                              code\libs\sd.a(sdmmc_host_set_bus_width.o) (sd_host_set_bus_width)
code\libs\sd.a(sd_host_set_hispeed.o)
                              code\libs\sd.a(sdmmc_host_set_hispeed.o) (sd_host_set_hispeed)
code\libs\sd.a(sd_host_switch_func.o)
                              code\libs\sd.a(sd_host_set_hispeed.o) (sd_host_switch_func)
code\libs\sd.a(sd_select_card.o)
                              code\libs\sd.a(sd_init.o) (sd_select_card)
code\libs\sd.a(sd_send_scr.o)
                              code\libs\sd.a(sdmmc_host_set_bus_width.o) (sd_send_scr)
code\libs\sd.a(sd_chk_ctl.o)  code\libs\sd.a(sdmmc_det.o) (sd_chk_ctl)
code\libs\sd.a(sd_host_identification.o)
                              code\libs\sd.a(sd_init.o) (sd_host_identification)
code\libs\sd.a(mmc_host_send_op_cond.o)
                              code\libs\sd.a(sd_host_identification.o) (mmc_host_send_op_cond)
code\libs\sd.a(sd_host_app_cmd.o)
                              code\libs\sd.a(sd_host_sd_status.o) (sd_host_app_cmd)
code\libs\sd.a(sd_host_send_op_cond.o)
                              code\libs\sd.a(sd_host_identification.o) (sd_host_send_op_cond)
code\libs\usb.a(mango_dev_usb_slave.o)
                              obj\Debug\\code\apps\usb_device\dev_pc.o (usb_slave_ioctl_api)
code\libs\usb.a(usb_device_mount.o)
                              obj\Debug\\code\apps\usb_device\dev_pc.o (usb_device_mount)
code\libs\usb.a(usb_device_unmount.o)
                              code\libs\dev_mg_lib.a(dev_updata_mode.o) (usb_device_unmount)
code\libs\usb.a(usb_slave_mic_adc.o)
                              code\libs\usb.a(usb_device_mount.o) (usb_mic_syn_init)
code\libs\usb.a(usb_slave_spk_dac.o)
                              code\libs\usb.a(usb_device_mount.o) (usb_spk_syn_init)
code\libs\usb.a(usbs_ctl_isr.o)
                              code\libs\sys_cfg_ac46.a(startup.o) (usbs_ctl_isr)
code\libs\usb.a(usb_class_setting_libs.o)
                              obj\Debug\\code\apps\usb_device\dev_pc.o (usb_class_setting)
code\libs\usb.a(usb_device_io.o)
                              code\libs\usb.a(usb_class_setting_libs.o) (usb_write_dev_null)
code\libs\usb.a(usb_hid_key.o)
                              code\libs\usb.a(mango_dev_usb_slave.o) (usb_hid_control)
code\libs\usb.a(usb_slave_ctl.o)
                              obj\Debug\\code\apps\usb_device\dev_pc.o (susb_msg_set_hook)
code\libs\usb.a(usb_slave_scsi_libs.o)
                              code\libs\usb.a(mango_dev_usb_slave.o) (USB_MassStorage)
code\libs\usb.a(usb_slave_sd.o)
                              code\libs\usb.a(usb_slave_scsi_libs.o) (usb_read_device)
code\libs\usb.a(usb_device_status.o)
                              code\libs\usb.a(mango_dev_usb_slave.o) (usb_slave_is_online)
code\libs\usb.a(usb_slave_online.o)
                              code\libs\usb.a(mango_dev_usb_slave.o) (usb_slave_online_check)
code\libs\usb.a(mango_dev_usb.o)
                              obj\Debug\\code\common\dev_manage\dev_ctl.o (dev_reg_usb)
code\libs\usb.a(usb_global_var.o)
                              code\libs\usb.a(mango_dev_usb_slave.o) (usb_mem_pfree)
code\libs\usb.a(usb_host_mount.o)
                              code\libs\usb.a(mango_dev_usb.o) (usb_host_mount)
code\libs\usb.a(usb_host_read.o)
                              code\libs\usb.a(mango_dev_usb.o) (usb_host_read)
code\libs\usb.a(usb_host_unmount.o)
                              code\libs\usb.a(mango_dev_usb.o) (usb_host_unmount)
code\libs\usb.a(usb_host_write.o)
                              code\libs\usb.a(mango_dev_usb.o) (usb_host_write)
code\libs\usb.a(usb_read_remain.o)
                              code\libs\usb.a(usb_host_write.o) (usb_read_remain)
code\libs\usb.a(usb_suspend.o)
                              code\libs\usb.a(mango_dev_usb.o) (usb_suspend)
code\libs\usb.a(USB_Host_dev_enum_libs.o)
                              code\libs\usb.a(usb_host_mount.o) (USB_Host_dev_enum)
code\libs\usb.a(usb_control_transfers.o)
                              code\libs\usb.a(USB_Host_dev_enum_libs.o) (usb_control_transfers)
code\libs\usb.a(usb_ctlXfer.o)
                              code\libs\usb.a(usb_control_transfers.o) (usb_ctlXfer)
code\libs\usb.a(usb_descriptor_parser.o)
                              code\libs\usb.a(USB_Host_dev_enum_libs.o) (usb_descriptor_parser)
code\libs\usb.a(usb_bulk_only_receive.o)
                              code\libs\usb.a(usb_read_remain.o) (usb_bulk_only_receive)
code\libs\usb.a(usb_bulk_only_transfer.o)
                              code\libs\usb.a(usb_host_read.o) (usb_bulk_only_transfer)
code\libs\usb.a(usb_ufi_read10.o)
                              code\libs\usb.a(usb_host_read.o) (usb_ufi_read10)
code\libs\usb.a(usb_ufi_write10.o)
                              code\libs\usb.a(usb_host_write.o) (usb_ufi_write10)
code\libs\usb.a(usbh_msd_enum.o)
                              code\libs\usb.a(usb_host_mount.o) (usbh_msd_enum)
code\libs\usb.a(usbh_msd_parser.o)
                              code\libs\usb.a(usb_descriptor_parser.o) (usbh_msd_parser)
code\libs\usb.a(usb_host_reg_libs.o)
                              code\libs\usb.a(usb_host_mount.o) (usb_host_init)
code\libs\usb.a(usb_reg.o)    code\libs\usb.a(usb_host_reg_libs.o) (delay_nop)
code\libs\usb.a(usb_host_status.o)
                              code\libs\usb.a(mango_dev_usb.o) (usb_get_capacity)
code\libs\usb.a(usb_online.o)
                              code\libs\usb.a(usb_slave_online.o) (usb_online)
code\libs\usb.a(Descriptor.o)
                              code\libs\usb.a(usb_slave_scsi_libs.o) (gabSCSIModeSense)
code\libs\usb.a(set_descriptor_libs.o)
                              code\libs\usb.a(usb_slave_ctl.o) (set_descriptor)
code\libs\usb.a(usb_host_timeout.o)
                              code\libs\usb.a(usb_ctlXfer.o) (usb_host_timeout)
code\libs\usb.a(get_max_LUN.o)
                              code\libs\usb.a(usbh_msd_enum.o) (get_max_LUN)
code\libs\usb.a(usb_host_clear_feature.o)
                              code\libs\usb.a(usbh_msd_enum.o) (usb_host_clear_feature)
code\libs\usb.a(CBW_init.o)   code\libs\usb.a(usb_ufi_read10.o) (CBW_init)
code\libs\usb.a(usb_bulk_only_send.o)
                              code\libs\usb.a(usb_bulk_only_transfer.o) (usb_bulk_only_send)
code\libs\usb.a(usb_host_scsi_cmd_libs.o)
                              code\libs\usb.a(usbh_msd_enum.o) (USB_UFI_Inquiry)
code\libs\librtos_bt15.a(os_core.o)
                              obj\Debug\\code\cpu\ac46\board\board_bt15_v0.o (OSInit)
code\libs\librtos_bt15.a(os_mutex.o)
                              obj\Debug\\code\common\dev_manage\dev_ctl.o (OSMutexCreate)
code\libs\librtos_bt15.a(os_sem.o)
                              obj\Debug\\code\apps\bt\btstack\bt_key_deal.o (OSSemCreate)
code\libs\librtos_bt15.a(os_task.o)
                              obj\Debug\\code\common\os_api\os_api.o (OSTaskCreate)
code\libs\librtos_bt15.a(os_time.o)
                              obj\Debug\\code\apps\fm\fm_radio.o (OSTimeDly)
code\libs\librtos_bt15.a(os_cpu.o)
                              code\libs\librtos_bt15.a(os_core.o) (OS_HighPrio)
code\libs\librtos_bt15.a(os_cpu_c.o)
                              code\libs\librtos_bt15.a(os_cpu.o) (OSTaskSwitchHook)
code\libs\lib_cache_vm_bt15.a(vm.o)
                              obj\Debug\\code\cpu\ac46\board\board_bt15_v0.o (vm_init)
code\libs\sydf_ac46.a(syd_file.o)
                              obj\Debug\\code\cpu\ac46\board\board_bt15_v0.o (set_sydf_header_base)
code\libs\lib_fm_resample.a(FM_resample.o)
                              obj\Debug\\code\apps\fm\fm_api.o (get_fmRS_ops)
code\libs\lib_fm_driver.a(fm_digital.o)
                              obj\Debug\\code\apps\fm\fm_api.o (set_fm_printf)
code\libs\lib_fm_driver.a(fmrx_driver.o)
                              code\libs\lib_fm_driver.a(fm_digital.o) (fmrx_get_busy)
code\libs\lib_fm_driver.a(fm_analog.o)
                              code\libs\lib_fm_driver.a(fm_digital.o) (fm_analog_init)
code\libs\lib_fm_driver.a(fm_coef.o)
                              code\libs\lib_fm_driver.a(fm_digital.o) (fm_config0)
code\libs\libBtCalling.a(BT_Calling.o)
                              code\libs\aec_ac46.a(aec.o) (BlueTooth_Calling_QueryBufSize)
code\libs\libBtCalling.a(aecmain.o)
                              code\libs\libBtCalling.a(BT_Calling.o) (jlaecv2_QuaryBufSize)
code\libs\libBtCalling.a(ns_core.o)
                              code\libs\libBtCalling.a(BT_Calling.o) (WebRtcNs_InitCore)
code\libs\libBtCalling.a(aec_core.o)
                              code\libs\libBtCalling.a(aecmain.o) (WebRtcAec_InitAec)
code\libs\libBtCalling.a(aec_rdft.o)
                              code\libs\libBtCalling.a(aecmain.o) (aec_rdft_forward_128_int)
code\libs\lib_usb_syn.a(usb_syn.o)
                              code\libs\usb.a(usb_slave_mic_adc.o) (get_adc_usbsyn_ops)
code\libs\libbt_bt15.a(a2dp.o)
                              obj\Debug\\code\apps\bt\btstack\bt_key_deal.o (__set_a2dp_music_eq)
code\libs\libbt_bt15.a(avctp.o)
                              code\libs\libbt_bt15.a(a2dp.o) (avctp_try_send)
code\libs\libbt_bt15.a(avctp_user.o)
                              obj\Debug\\code\apps\bt\btstack\bt_key_deal.o (user_send_cmd_prepare)
code\libs\libbt_bt15.a(avdtp.o)
                              code\libs\libbt_bt15.a(a2dp.o) (avdtp_retry_send)
code\libs\libbt_bt15.a(a2dp_media_file.o)
                              code\libs\libbt_bt15.a(a2dp.o) (a2dp_media_file_write)
code\libs\libbt_bt15.a(h4_transport.o)
                              code\libs\libbt_bt15.a(avctp_user.o) (h4_delete_loop)
code\libs\libbt_bt15.a(nfc_blueteeth.o)
                              code\libs\sys_cfg_ac46.a(startup.o) (nfc_isr)
code\libs\libbt_bt15.a(hci.o)
                              obj\Debug\\code\apps\bt\btstack\bt_key_deal.o (get_remote_test_flag)
code\libs\libbt_bt15.a(hci_cmds.o)
                              code\libs\libbt_bt15.a(hci.o) (hci_create_cmd_internal)
code\libs\libbt_bt15.a(hci_dump.o)
                              code\libs\libbt_bt15.a(hci.o) (hci_dump_packet)
code\libs\libbt_bt15.a(hfp_profile.o)
                              code\libs\libbt_bt15.a(avctp_user.o) (hfp_profile_release)
code\libs\libbt_bt15.a(hid.o)
                              code\libs\libbt_bt15.a(avctp_user.o) (hid_android_shutter)
code\libs\libbt_bt15.a(l2cap.o)
                              code\libs\libbt_bt15.a(avctp_user.o) (l2cap_release)
code\libs\libbt_bt15.a(l2cap_signaling.o)
                              code\libs\libbt_bt15.a(l2cap.o) (l2cap_next_sig_id)
code\libs\libbt_bt15.a(linked_list.o)
                              code\libs\libbt_bt15.a(l2cap.o) (linked_list_empty)
code\libs\libbt_bt15.a(rfcomm.o)
                              code\libs\libbt_bt15.a(avctp_user.o) (rfcomm_release)
code\libs\libbt_bt15.a(sdp.o)
                              code\libs\libbt_bt15.a(avctp_user.o) (sdp_release)
code\libs\libbt_bt15.a(sdp_master.o)
                              code\libs\libbt_bt15.a(avctp_user.o) (launch_initiative_connection)
code\libs\libbt_bt15.a(sdp_util.o)
                              code\libs\libbt_bt15.a(sdp.o) (de_get_size_type)
code\libs\libbt_bt15.a(spp_profile.o)
                              code\libs\libbt_bt15.a(avctp_user.o) (spp_data_try_send)
code\libs\libbt_bt15.a(utils.o)
                              code\libs\libbt_bt15.a(hci.o) (bt_store_16)
code\libs\libbt_bt15.a(bt_configs.o)
                              obj\Debug\\code\apps\bt\btstack\bt_configs_user.o (__set_bt_mac_addr)
code\libs\libbt_bt15.a(btstack.o)
                              code\libs\libbt_bt15.a(a2dp.o) (module_btstack)
code\libs\libbt_bt15.a(phone_talking.o)
                              code\libs\sys_cfg_ac46.a(startup.o) (bt_pcm_alink_isr)
code\libs\libbt_bt15.a(resource_manage.o)
                              obj\Debug\\code\apps\bt\btstack\bt_key_deal.o (mutex_resource_apply)
code\libs\libbt_bt15.a(run_loop.o)
                              code\libs\libbt_bt15.a(a2dp.o) (__timer_register)
code\libs\libbt_bt15.a(spp_accel.o)
                              code\libs\libbt_bt15.a(avctp_user.o) (spp_ctrl)
code\libs\libbt_bt15.a(analog.o)
                              obj\Debug\\code\cpu\ac46\board\board_bt15_v0.o (set_bt_pll_para)
code\libs\libbt_bt15.a(device_manager.o)
                              obj\Debug\\code\cpu\ac46\board\board_bt15_v0.o (cfg_test_box_and_work_mode)
code\libs\libbt_bt15.a(hci_bottom.o)
                              code\libs\libbt_bt15.a(device_manager.o) (hci_bottom_init)
code\libs\libbt_bt15.a(inquiry_scan.o)
                              code\libs\libbt_bt15.a(device_manager.o) (inquiry_page_run)
code\libs\libbt_bt15.a(lbuf.o)
                              code\libs\libbt_bt15.a(device_manager.o) (lbuf_init)
code\libs\libbt_bt15.a(link_controller.o)
                              code\libs\libbt_bt15.a(device_manager.o) (glink_handl)
code\libs\libbt_bt15.a(lmp.o)
                              code\libs\libbt_bt15.a(btstack.o) (lmp_task_wakeup)
code\libs\libbt_bt15.a(lmp_custom.o)
                              code\libs\libbt_bt15.a(lmp.o) (lmp_custom_command_process)
code\libs\libbt_bt15.a(lmp_main.o)
                              code\libs\libbt_bt15.a(btstack.o) (TaskBtLmp)
code\libs\libbt_bt15.a(mdm.o)
                              code\libs\libbt_bt15.a(link_controller.o) (check_3M_deal)
code\libs\libbt_bt15.a(radio.o)
                              code\libs\libbt_bt15.a(lmp.o) (clear_esco_buf)
code\libs\libbt_bt15.a(role_switch_page.o)
                              code\libs\libbt_bt15.a(device_manager.o) (role_switch_page_run)
code\libs\libbt_bt15.a(sync_word.o)
                              code\libs\libbt_bt15.a(device_manager.o) (gen_bch)
code\libs\libbt_bt15.a(test_dut.o)
                              code\libs\libbt_bt15.a(lmp.o) (reset_callback_register)
code\libs\libbt_bt15.a(test_master.o)
                              code\libs\libbt_bt15.a(lmp.o) (master_test_sw)
code\libs\libbt_bt15.a(vsprintf.o)
                              code\libs\libbt_bt15.a(hci_bottom.o) (__vsprintf_len)
code\libs\libbt_bt15.a(apple_MA_L.o)
                              code\libs\libbt_bt15.a(bt_configs.o) (apple_MA_L)
code\libs\libbt_bt15.a(hciattach_bt.o)
                              code\libs\libbt_bt15.a(spp_accel.o) (bt_control_bk_instance)
code\libs\libbt_bt15.a(btstack_memory.o)
                              code\libs\libbt_bt15.a(hci.o) (btstack_memory_hci_connection_get)
code\libs\libbt_bt15.a(database_file.o)
                              code\libs\libbt_bt15.a(spp_accel.o) (open_remote_db_file)
code\libs\libbt_bt15.a(hfp_ag_profile.o)
                              code\libs\libbt_bt15.a(sdp_master.o) (hfp_ag_packet_handler)
code\libs\libbt_bt15.a(memory_pool.o)
                              code\libs\libbt_bt15.a(btstack_memory.o) (memory_pool_create)
code\libs\libbt_bt15.a(remote_device_db_memory.o)
                              code\libs\libbt_bt15.a(spp_accel.o) (remote_device_db_init)
code\libs\libbt_bt15.a(Bluetooth_Authentication.o)
                              code\libs\libbt_bt15.a(lmp.o) (function_E1)
code\libs\libbt_bt15.a(Crypto_hash.o)
                              code\libs\libbt_bt15.a(lmp.o) (f1_function)
code\libs\libbt_bt15.a(authencation.o)
                              code\libs\libbt_bt15.a(lmp.o) (make_rand_num)
code\libs\libbt_bt15.a(bigint.o)
                              code\libs\libbt_bt15.a(Bluetooth_Authentication.o) (bi_wirte_to_byte)
code\libs\libbt_bt15.a(ecdh.o)
                              code\libs\libbt_bt15.a(lmp.o) (ecdh_PublicKey)
code\libs\libbt_bt15.a(hmac.o)
                              code\libs\libbt_bt15.a(Crypto_hash.o) (hmacCompute)
code\libs\libbt_bt15.a(prbs9_table.o)
                              code\libs\libbt_bt15.a(test_dut.o) (prbs9_table0)
code\libs\libbt_bt15.a(sha256.o)
                              code\libs\libbt_bt15.a(Crypto_hash.o) (sha256Compute)
code\libs\libbt_bt15.a(BINT_MUL_CORE.o)
                              code\libs\libbt_bt15.a(bigint.o) (bigint_mul_core)
code\libs\libbt_bt15.a(endian.o)
                              code\libs\libbt_bt15.a(sha256.o) (_swap32)
code\libs\lib_btrepair.a(BT15_repair.o)
                              code\libs\aec_ac46.a(aec.o) (get_repair_api)
code\libs\lib_aac_decode.a(aac_main.o)
                              code\libs\dec_lib_ac46.a(decoder_phy.o) (get_aac_ops)
code\libs\lib_aac_decode.a(common.o)
                              code\libs\lib_aac_decode.a(aac_main.o) (get_sr_index)
code\libs\lib_aac_decode.a(decoder.o)
                              code\libs\lib_aac_decode.a(aac_main.o) (NeAACDecOpen)
code\libs\lib_aac_decode.a(filtbank.o)
                              code\libs\lib_aac_decode.a(decoder.o) (filter_bank_init)
code\libs\lib_aac_decode.a(mdct.o)
                              code\libs\lib_aac_decode.a(filtbank.o) (faad_mdct_init)
code\libs\lib_aac_decode.a(output.o)
                              code\libs\lib_aac_decode.a(decoder.o) (output_to_PCM)
code\libs\lib_aac_decode.a(syntax.o)
                              code\libs\lib_aac_decode.a(decoder.o) (raw_data_block)
code\libs\lib_aac_decode.a(bits.o)
                              code\libs\lib_aac_decode.a(decoder.o) (faad_initbits)
code\libs\lib_aac_decode.a(cfft.o)
                              code\libs\lib_aac_decode.a(mdct.o) (cfftb)
code\libs\lib_aac_decode.a(huffman.o)
                              code\libs\lib_aac_decode.a(syntax.o) (huffman_scale_factor)
code\libs\lib_aac_decode.a(pulse.o)
                              code\libs\lib_aac_decode.a(syntax.o) (pulse_decode)
code\libs\lib_aac_decode.a(specrec.o)
                              code\libs\lib_aac_decode.a(syntax.o) (window_grouping_info)
code\libs\lib_aac_decode.a(tns.o)
                              code\libs\lib_aac_decode.a(specrec.o) (tns_decode_frame)
code\libs\lib_aac_decode.a(is.o)
                              code\libs\lib_aac_decode.a(specrec.o) (is_decode)
code\libs\lib_aac_decode.a(ms.o)
                              code\libs\lib_aac_decode.a(specrec.o) (ms_decode)
code\libs\libBt_a2dp_sync.a(bt_a2dp_sync.o)
                              code\libs\libbt_bt15.a(a2dp.o) (bt_a2dp_sync_QuaryBufSize)
code\libs\libBt_a2dp_sync.a(syn_ps.o)
                              code\libs\libBt_a2dp_sync.a(bt_a2dp_sync.o) (get_syn_ps_api)
code\libs\clk_ac46.a(clock_api.o)
                              obj\Debug\\code\cpu\ac46\board\board_bt15_v0.o (clock_init)
code\libs\clk_ac46.a(clock_moudle.o)
                              code\libs\clk_ac46.a(clock_api.o) (peripherals_moudle_bt_clk)
code\libs\clk_ac46.a(clock_app.o)
                              code\libs\clk_ac46.a(clock_api.o) (clock_run)
code\libs\clk_ac46.a(pll_moudle.o)
                              code\libs\clk_ac46.a(clock_app.o) (pll_clk192_tab)
code\libs\lib_ape_decode.a(mtst_ape.o)
                              code\libs\dec_lib_ac46.a(decoder_phy.o) (get_ape_ops)
code\libs\lib_ape_decode.a(apedec.o)
                              code\libs\lib_ape_decode.a(mtst_ape.o) (ape_read_header)
code\libs\lib_ape_decode.a(dv_ape.o)
                              code\libs\lib_ape_decode.a(apedec.o) (do_apply_filter)
code\libs\lib_flac_decode.a(mtst_flac.o)
                              code\libs\dec_lib_ac46.a(decoder_phy.o) (get_flac_ops)
code\libs\lib_flac_decode.a(flacdec.o)
                              code\libs\lib_flac_decode.a(mtst_flac.o) (flac_init)
code\libs\lib_encode.a(encode.o)
                              obj\Debug\\code\apps\record\record.o (fw_api_init)
code\libs\lib_encode.a(dev_write_api.o)
                              obj\Debug\\code\apps\record\record.o (encode_fs_open)
code\libs\lib_adpcm_encode.a(en_adpcm_test.o)
                              code\libs\lib_encode.a(encode.o) (get_enadpcm_ops)
code\libs\lib_adpcm_encode.a(en_adpcm.o)
                              code\libs\lib_adpcm_encode.a(en_adpcm_test.o) (adpcm_coder)
code\libs\lib_mp2_encode.a(mp2_test.o)
                              code\libs\lib_encode.a(encode.o) (get_mp2_ops)
code\libs\lib_mp2_encode.a(mp2dsp.o)
                              code\libs\lib_mp2_encode.a(mp2_test.o) (mp2_filter)
code\libs\lib_mp2_encode.a(encodemp2.o)
                              code\libs\lib_mp2_encode.a(mp2_test.o) (encode_init)
C:\JL\dv10\lib\libc.a(lib_a-memcmp.o)
                              code\libs\lib_wma_decode.a(asf.o) (memcmp)
C:\JL\dv10\lib\libc.a(lib_a-memcpy.o)
                              obj\Debug\\code\apps\bt\btstack\bt_configs_user.o (memcpy)
C:\JL\dv10\lib\libc.a(lib_a-memmove.o)
                              code\libs\mem_ac46.a(mem_heap.o) (memmove)
C:\JL\dv10\lib\libc.a(lib_a-memset.o)
                              obj\Debug\\code\apps\fm\fm_api.o (memset)
C:\JL\dv10\lib\libc.a(lib_a-rand.o)
                              obj\Debug\\code\cpu\ac46\driver\timer.o (srand)
C:\JL\dv10\lib\libc.a(lib_a-strcmp.o)
                              obj\Debug\\code\apps\music\music.o (strcmp)
C:\JL\dv10\lib\libc.a(lib_a-strcpy.o)
                              code\libs\libbt_bt15.a(hfp_profile.o) (strcpy)
C:\JL\dv10\lib\libc.a(lib_a-strlen.o)
                              code\libs\dec_lib_ac46.a(decoder_phy.o) (strlen)
C:\JL\dv10\lib\libc.a(lib_a-strstr.o)
                              obj\Debug\\code\apps\music\music_info.o (strstr)
C:\JL\dv10\lib\libc.a(lib_a-impure.o)
                              C:\JL\dv10\lib\libc.a(lib_a-rand.o) (_impure_ptr)
C:\JL\dv10\lib\libc.a(lib_a-memchr.o)
                              C:\JL\dv10\lib\libc.a(lib_a-strstr.o) (memchr)
C:\JL\dv10\lib\libc.a(lib_a-strchr.o)
                              C:\JL\dv10\lib\libc.a(lib_a-strstr.o) (strchr)
C:\JL\dv10\lib\libgcc.a(_umodsi3.o)
                              obj\Debug\\code\common\file_operate\file_operate.o (__umodsi3)
C:\JL\dv10\lib\libgcc.a(_modsi3.o)
                              obj\Debug\\code\cpu\ac46\driver\key_voice.o (__modsi3)
C:\JL\dv10\lib\libgcc.a(_muldi3.o)
                              code\libs\libSpeech_dection.a(Speech_detection.o) (__muldi3)
C:\JL\dv10\lib\libgcc.a(_umulsi3_highpart.o)
                              obj\Debug\\code\apps\bt\btstack\fcc_test.o (__umulsi3_highpart)
C:\JL\dv10\lib\libgcc.a(_lshrdi3.o)
                              code\libs\libbt_bt15.a(sync_word.o) (__lshrdi3)
C:\JL\dv10\lib\libgcc.a(_ashldi3.o)
                              code\libs\libbt_bt15.a(sync_word.o) (__ashldi3)
C:\JL\dv10\lib\libgcc.a(_divdi3.o)
                              code\libs\libBtCalling.a(aecmain.o) (__divdi3)
C:\JL\dv10\lib\libgcc.a(_udivdi3.o)
                              code\libs\libbt_bt15.a(lmp.o) (__udivdi3)
C:\JL\dv10\lib\libgcc.a(_umoddi3.o)
                              code\libs\libbt_bt15.a(lmp.o) (__umoddi3)
C:\JL\dv10\lib\libgcc.a(divsf3.o)
                              code\libs\lib_fm_driver.a(fm_digital.o) (__divsf3)
C:\JL\dv10\lib\libgcc.a(subsf3.o)
                              code\libs\lib_fm_driver.a(fm_digital.o) (__subsf3)
C:\JL\dv10\lib\libgcc.a(fixsfsi.o)
                              code\libs\lib_fm_driver.a(fm_digital.o) (__fixsfsi)
C:\JL\dv10\lib\libgcc.a(floatsisf.o)
                              code\libs\lib_fm_driver.a(fm_digital.o) (__floatsisf)
C:\JL\dv10\lib\libgcc.a(_clz.o)
                              C:\JL\dv10\lib\libgcc.a(_divdi3.o) (__clz_tab)
C:\JL\dv10\lib\libgcc.a(_clzsi2.o)
                              C:\JL\dv10\lib\libgcc.a(divsf3.o) (__clzsi2)

Allocating common symbols
Common symbol       size              file

g_sys_cfg           0x6c              obj\Debug\\code\apps\main\main.o
new_lg_dev_let      0x1               code\libs\dev_mg_lib.a(logic_dev_list.o)
a2dp_service_record_item
                    0x14              code\libs\libbt_bt15.a(sdp_util.o)
sys_clk_chg_sem     0x10              obj\Debug\\code\cpu\ac46\driver\clock.o
dac_buf_add         0x4               code\libs\lib_dac.a(dac_init.o)
TaskBtStackQ        0x10              obj\Debug\\code\cpu\ac46\board\board_bt15_v0.o
bt_pll_cap0         0x1               code\libs\libbt_bt15.a(analog.o)
dac_var             0x1c              code\libs\lib_dac.a(dac_channel.o)
cur_fre_rssi        0x2               code\libs\lib_fm_driver.a(fmrx_driver.o)
timer1_pad          0x2               obj\Debug\\code\cpu\ac46\driver\key_drv_ir.o
TaskUIQ             0x10              obj\Debug\\code\cpu\ac46\board\board_bt15_v0.o
usb_to_sd_flag      0x4               obj\Debug\\code\apps\main\main.o
pm_mem_curren_pos_begin
                    0x2               code\libs\mem_ac46.a(pmalloc.o)
sys_mem_sta         0x18              obj\Debug\\code\common\common.o
agc_set_v           0x1               code\libs\libbt_bt15.a(analog.o)
aux_pause_mark      0x4               obj\Debug\\code\common\ui\led7_drv.o
music_prompt_flag   0x4               obj\Debug\\code\apps\music\music_prompt.o
nfc_buff            0xa8              code\libs\libbt_bt15.a(nfc_blueteeth.o)
current_time        0x8               obj\Debug\\code\apps\rtc\irtc.o
curr_device_using   0x4               obj\Debug\\code\apps\music\music.o
power_sem           0x10              obj\Debug\\code\cpu\ac46\driver\sys_detect.o
key_type            0x1               obj\Debug\\code\cpu\ac46\driver\key.o
uart0_tx_ok         0x1               obj\Debug\\code\cpu\ac46\driver\uart.o
input_number        0x4               obj\Debug\\code\cpu\ac46\driver\key.o
dac_amux_one_in_two_on
                    0x4               code\libs\lib_dac.a(dac_channel.o)
music_file_name     0x88              obj\Debug\\code\apps\music\music_info.o
hfp_service_record_item
                    0x14              code\libs\libbt_bt15.a(sdp_util.o)
id3_head            0x8               code\libs\dec_lib_ac46.a(decoder_phy.o)
lg_dev_list_head    0x4               code\libs\dev_mg_lib.a(logic_dev_list.o)
spp_ctrl            0x4               code\libs\libbt_bt15.a(spp_accel.o)
cache_online_status
                    0x1               code\libs\dev_mg_lib.a(mango_dev_cache.o)
total_folder        0x4               code\libs\libtff.a(ff_api.o)
aec_con             0x4               code\libs\aec_ac46.a(aec.o)
sydf_head_base      0x4               code\libs\sydf_ac46.a(syd_file.o)
timer_send_sbc      0x10              code\libs\libbt_bt15.a(a2dp.o)
sdp_stack           0x4               code\libs\libbt_bt15.a(sdp.o)
OSTCBCur            0x4               code\libs\librtos_bt15.a(os_core.o)
cache               0x4               obj\Debug\\code\common\dev_manage\dev_ctl.o
g_aux_var           0x8               obj\Debug\\code\apps\linein\dev_linein.o
curr_task           0x4               obj\Debug\\code\common\os_api\task_manage.o
show_led_mode       0x1               obj\Debug\\code\cpu\ac46\driver\led.o
enc_mpx_sem         0x10              code\libs\lib_encode.a(encode.o)
hfp_ag_channel_id   0x2               code\libs\libbt_bt15.a(hfp_ag_profile.o)
btcfg_aec           0x2               obj\Debug\\code\apps\bt\aec\aec_api.o
spp_handl           0x8               code\libs\libbt_bt15.a(spp_profile.o)
spd_buf             0x4               code\libs\aec_ac46.a(aec.o)
idle_tcb            0x28              code\libs\librtos_bt15.a(os_core.o)
speeker_dagc_buf    0x4               code\libs\aec_ac46.a(aec.o)
ladc_buf            0x200             obj\Debug\\code\cpu\ac46\driver\ladc.o
led7_var            0x2c              obj\Debug\\code\common\ui\led7_drv.o
audio_cb            0x20              obj\Debug\\code\cpu\ac46\driver\dac.o
bLedShowDelCnt      0x1               obj\Debug\\code\apps\music\music.o
phone_talking_flag  0x1               code\libs\aec_ac46.a(aec.o)
led_show_mode       0x4               obj\Debug\\code\apps\bt\btstack\bt_key_deal.o
key_voice           0x14              obj\Debug\\code\cpu\ac46\driver\key_voice.o
vmm_fat             0xff              code\libs\mem_ac46.a(vmalloc.o)
ghci_handl          0x14              code\libs\libbt_bt15.a(hci_bottom.o)
fmrx_ctlbuf         0x4               code\libs\lib_fm_driver.a(fmrx_driver.o)
fm_rec_buffer       0x4               obj\Debug\\code\apps\fm\fm_api.o
music_ui            0x10              obj\Debug\\code\apps\music\music.o
fm_pll_cap          0x20              code\libs\lib_fm_driver.a(fm_analog.o)
bt_bp_rw            0x1               code\libs\libbt_bt15.a(analog.o)
NfcBT               0x14              code\libs\libbt_bt15.a(nfc_blueteeth.o)
dec_status          0x4               obj\Debug\\code\apps\music\music_prompt.o
glink_handl         0x40              code\libs\libbt_bt15.a(link_controller.o)
hid_service_buffer  0x190             code\libs\libbt_bt15.a(sdp_util.o)
OSTCBHighRdy        0x4               code\libs\librtos_bt15.a(os_core.o)
hid_service_record_item
                    0x14              code\libs\libbt_bt15.a(sdp_util.o)
a2dp_music_simplerate
                    0x4               code\libs\libbt_bt15.a(a2dp_media_file.o)
aec                 0x4               code\libs\aec_ac46.a(aec.o)
lfn_music           0x202             obj\Debug\\code\apps\music\music_info.o
auto_connection_counter
                    0x1               obj\Debug\\code\apps\bt\btstack\bt_key_deal.o
rec_total_number    0x4               obj\Debug\\code\apps\record\record.o
avctp_service_buffer
                    0x80              code\libs\libbt_bt15.a(sdp_util.o)
linein_prompt_stopped
                    0x4               obj\Debug\\code\apps\linein\linein_prompt.o
fm_rs_objt          0x4               obj\Debug\\code\apps\fm\fm_api.o
a2dp_source_service_record_item
                    0x14              code\libs\libbt_bt15.a(sdp_util.o)
sd0                 0x4               obj\Debug\\code\common\dev_manage\dev_ctl.o
last_task_info      0xc               obj\Debug\\code\common\os_api\task_manage.o
OSRdyTbl            0x4               code\libs\librtos_bt15.a(os_core.o)
decoder_time        0x4               code\libs\dec_lib_ac46.a(decoder_phy.o)
tone_manage_semp    0x10              obj\Debug\\code\apps\bt\btstack\bt_key_deal.o
writepos            0x1               obj\Debug\\code\apps\bt\btstack\fcc_test.o
check_3m_cnt        0x1               code\libs\libbt_bt15.a(mdm.o)
dac_read_en         0x1               obj\Debug\\code\cpu\ac46\driver\dac.o
pm_usd_map          0x20              code\libs\mem_ac46.a(pmalloc.o)
bt_pll_cap1         0x1               code\libs\libbt_bt15.a(analog.o)
avctp_service_record_item
                    0x14              code\libs\libbt_bt15.a(sdp_util.o)
g_clock_lsb_div     0x4               code\libs\clk_ac46.a(clock_moudle.o)
fmrx_tmr            0x1               code\libs\lib_fm_driver.a(fmrx_driver.o)
encryption_key_size
                    0x1               code\libs\libbt_bt15.a(lmp.o)
ir_code             0x8               obj\Debug\\code\cpu\ac46\driver\key_drv_ir.o
current_alarm       0x8               obj\Debug\\code\apps\rtc\irtc.o
ir_msg_table        0x64              obj\Debug\\code\cpu\ac46\driver\key.o
ext_table           0x4               code\libs\libtff.a(ff_api.o)
UI_var              0x4               obj\Debug\\code\common\ui\led_ui_api.o
TaskStartQ          0x10              obj\Debug\\code\cpu\ac46\board\board_bt15_v0.o
btc_buf             0x4               code\libs\aec_ac46.a(aec.o)
pm_mem_curren_pos   0x2               code\libs\mem_ac46.a(pmalloc.o)
lyx_recplay_repeat_one_sw
                    0x4               obj\Debug\\code\apps\music\music.o
rtc_prompt_stopped  0x4               obj\Debug\\code\apps\rtc\rtc_prompt.o
fm_dac_buf          0x4               obj\Debug\\code\apps\fm\fm_api.o
bcd_number          0x5               obj\Debug\\code\common\ui\ui_common.o
pnp_service_record_item
                    0x14              code\libs\libbt_bt15.a(sdp_util.o)
uart_mutex          0x10              obj\Debug\\code\cpu\ac46\driver\uart.o
bt15_own_remote_test_flag
                    0x1               code\libs\libbt_bt15.a(hci.o)
workmode            0x1               obj\Debug\\code\apps\main\main.o
cache_base          0x4               code\libs\dev_mg_lib.a(mango_dev_cache.o)
g_rand_seed         0x4               obj\Debug\\code\cpu\ac46\driver\timer.o
g_2ms_seed          0x4               obj\Debug\\code\cpu\ac46\driver\timer.o
dac_digt_ctl        0x8               code\libs\lib_dac.a(dac_channel.o)
show_led_num        0x1               obj\Debug\\code\cpu\ac46\driver\led.o
hfp_ag_service_record_item
                    0x14              code\libs\libbt_bt15.a(sdp_util.o)
bt_trim             0x8               code\libs\libbt_bt15.a(bt_configs.o)
lofc_res32          0x4               code\libs\lib_fm_driver.a(fmrx_driver.o)
OSIdleCtr           0x4               code\libs\librtos_bt15.a(os_core.o)
audio_sem           0x10              obj\Debug\\code\cpu\ac46\driver\dac.o
pll_hen             0x1               code\libs\libbt_bt15.a(analog.o)
dac_amux_two_in_one_off
                    0x4               code\libs\lib_dac.a(dac_channel.o)
sbc_decode_simplerate
                    0x4               code\libs\libbt_bt15.a(a2dp.o)
OSRunning           0x1               code\libs\librtos_bt15.a(os_core.o)
a2dp_service_buffer
                    0x80              code\libs\libbt_bt15.a(sdp_util.o)
uart0_rx_count      0x4               obj\Debug\\code\cpu\ac46\driver\uart.o
usb                 0x4               obj\Debug\\code\common\dev_manage\dev_ctl.o
show_led_time       0x1               obj\Debug\\code\cpu\ac46\driver\led.o
dac_amux_one_in_two_off
                    0x4               code\libs\lib_dac.a(dac_channel.o)
OSTCBPrioTbl        0x80              code\libs\librtos_bt15.a(os_core.o)
install_isr_flag    0x4               code\libs\sys_cfg_ac46.a(hwi.o)
jiffies             0x4               obj\Debug\\code\cpu\ac46\board\board_bt15_v0.o
rec_fname_cnt       0x4               obj\Debug\\code\apps\record\record.o
BT_PCM_CON_save     0x4               code\libs\libbt_bt15.a(radio.o)
hfp_service_buffer  0x80              code\libs\libbt_bt15.a(sdp_util.o)
bt_pll_cap2         0x1               code\libs\libbt_bt15.a(analog.o)
OSLockNesting       0x1               code\libs\librtos_bt15.a(os_core.o)
OSTime              0x4               code\libs\librtos_bt15.a(os_core.o)
keymsg_task_name    0x4               obj\Debug\\code\cpu\ac46\driver\key.o
g_local             0x90              code\libs\libbt_bt15.a(device_manager.o)
music_prompt_stopped
                    0x4               obj\Debug\\code\apps\music\music_prompt.o
fm_mode_var         0x4               obj\Debug\\code\apps\fm\fm_radio.o
pwr_set             0x1               code\libs\libbt_bt15.a(analog.o)
aec_buf             0x4               code\libs\aec_ac46.a(aec.o)
g_debug             0x4               obj\Debug\\code\cpu\ac46\driver\uart.o
lg_dev_mutex        0x10              code\libs\dev_mg_lib.a(logic_dev_list.o)
touch_msg_table     0x28              obj\Debug\\code\cpu\ac46\driver\key.o
ESCOPORTCNTL0_save  0x4               code\libs\libbt_bt15.a(radio.o)
dac_energy_value    0x4               obj\Debug\\code\cpu\ac46\driver\dac.o
fm_set              0xc               code\libs\lib_fm_driver.a(fmrx_driver.o)
OSIntNesting        0x1               code\libs\librtos_bt15.a(os_core.o)
sys_info            0xc               obj\Debug\\code\apps\bt\aec\aec_api.o
prompt_played       0x4               obj\Debug\\code\apps\music\music_prompt.o
a2dp_cbuf_busy      0x1               code\libs\libbt_bt15.a(a2dp.o)
fm_dac_cb           0x4               obj\Debug\\code\apps\fm\fm_api.o
dac_amux_two_in_one_on
                    0x4               code\libs\lib_dac.a(dac_channel.o)
fm_info             0x4               obj\Debug\\code\apps\fm\fm_radio.o
adc_value           0x8               obj\Debug\\code\cpu\ac46\driver\key_drv_ad.o
sys_halfsec         0x1               obj\Debug\\code\cpu\ac46\driver\timer.o
fcc_uart_buf        0xd               obj\Debug\\code\apps\bt\btstack\fcc_test.o
delay_cnt           0x2               obj\Debug\\code\common\common.o
io_msg_table        0x28              obj\Debug\\code\cpu\ac46\driver\key.o
fm_prompt_stopped   0x4               obj\Debug\\code\apps\fm\fm_prompt.o
bt_pll_para         0x1               code\libs\libbt_bt15.a(analog.o)
sd1                 0x4               obj\Debug\\code\common\dev_manage\dev_ctl.o
crc_value           0x2               obj\Debug\\code\cpu\ac46\board\board_bt15_v0.o
ad_msg_table        0x60              obj\Debug\\code\cpu\ac46\driver\key.o
mem_fat             0x4               code\libs\mem_ac46.a(sbrk.o)
MODE_IN_LINEIN      0x4               obj\Debug\\code\apps\bt\aec\aec_api.o
btstack             0x4               code\libs\libbt_bt15.a(spp_accel.o)
in_rand_random_num  0x10              code\libs\libbt_bt15.a(lmp.o)
g_clock_moudle_err  0x4               code\libs\clk_ac46.a(clock_moudle.o)

Memory Configuration

Name             Origin             Length             Attributes
flash            0x01001400         0x01000000         x
ram0             0x00300000         0x0001ff00
ram1             0x00344000         0x00001000
*default*        0x00000000         0xffffffff

Linker script and memory map

LOAD obj\Debug\\code\apps\bt\aec\aec_api.o
LOAD obj\Debug\\code\apps\bt\btstack\bt_configs_user.o
LOAD obj\Debug\\code\apps\bt\btstack\bt_key_deal.o
LOAD obj\Debug\\code\apps\bt\btstack\bt_key_msg.o
LOAD obj\Debug\\code\apps\bt\btstack\fcc_test.o
LOAD obj\Debug\\code\apps\fm\fm_api.o
LOAD obj\Debug\\code\apps\fm\fm_key.o
LOAD obj\Debug\\code\apps\fm\fm_prompt.o
LOAD obj\Debug\\code\apps\fm\fm_radio.o
LOAD obj\Debug\\code\apps\idle\idle.o
LOAD obj\Debug\\code\apps\idle\idle_key.o
LOAD obj\Debug\\code\apps\linein\dev_linein.o
LOAD obj\Debug\\code\apps\linein\linein.o
LOAD obj\Debug\\code\apps\linein\linein_key.o
LOAD obj\Debug\\code\apps\linein\linein_prompt.o
LOAD obj\Debug\\code\apps\main\main.o
LOAD obj\Debug\\code\apps\main\main_key.o
LOAD obj\Debug\\code\apps\main\vm_api.o
LOAD obj\Debug\\code\apps\music\ef_api.o
LOAD obj\Debug\\code\apps\music\music.o
LOAD obj\Debug\\code\apps\music\music_info.o
LOAD obj\Debug\\code\apps\music\music_key.o
LOAD obj\Debug\\code\apps\music\music_prompt.o
LOAD obj\Debug\\code\apps\music\play_sel.o
LOAD obj\Debug\\code\apps\record\rec_key.o
LOAD obj\Debug\\code\apps\record\record.o
LOAD obj\Debug\\code\apps\rtc\irtc.o
LOAD obj\Debug\\code\apps\rtc\rtc.o
LOAD obj\Debug\\code\apps\rtc\rtc_key.o
LOAD obj\Debug\\code\apps\rtc\rtc_low_power.o
LOAD obj\Debug\\code\apps\rtc\rtc_prompt.o
LOAD obj\Debug\\code\apps\rtc\rtc_setting.o
LOAD obj\Debug\\code\apps\usb_device\dev_pc.o
LOAD obj\Debug\\code\apps\usb_device\pc_prompt.o
LOAD obj\Debug\\code\apps\usb_device\usb_device.o
LOAD obj\Debug\\code\apps\usb_device\usb_key.o
LOAD obj\Debug\\code\common\ASCII_lib.o
LOAD obj\Debug\\code\common\common.o
LOAD obj\Debug\\code\common\dev_manage\dev_ctl.o
LOAD obj\Debug\\code\common\fcvt.o
LOAD obj\Debug\\code\common\file_operate\file_operate.o
LOAD obj\Debug\\code\common\os_api\os_api.o
LOAD obj\Debug\\code\common\os_api\task_manage.o
LOAD obj\Debug\\code\common\printf-stdarg.o
LOAD obj\Debug\\code\common\ui\led7_drv.o
LOAD obj\Debug\\code\common\ui\led_ui_api.o
LOAD obj\Debug\\code\common\ui\ui_common.o
LOAD obj\Debug\\code\common\voice_prompt\voice_prompt.o
LOAD obj\Debug\\code\cpu\ac46\board\board_bt15_v0.o
LOAD obj\Debug\\code\cpu\ac46\driver\M62429.o
LOAD obj\Debug\\code\cpu\ac46\driver\clock.o
LOAD obj\Debug\\code\cpu\ac46\driver\dac.o
LOAD obj\Debug\\code\cpu\ac46\driver\encoder.o
LOAD obj\Debug\\code\cpu\ac46\driver\interrupt_isr.o
LOAD obj\Debug\\code\cpu\ac46\driver\key.o
LOAD obj\Debug\\code\cpu\ac46\driver\key_drv_ad.o
LOAD obj\Debug\\code\cpu\ac46\driver\key_drv_io.o
LOAD obj\Debug\\code\cpu\ac46\driver\key_drv_ir.o
LOAD obj\Debug\\code\cpu\ac46\driver\key_drv_tch.o
LOAD obj\Debug\\code\cpu\ac46\driver\key_voice.o
LOAD obj\Debug\\code\cpu\ac46\driver\kok_detect.o
LOAD obj\Debug\\code\cpu\ac46\driver\ladc.o
LOAD obj\Debug\\code\cpu\ac46\driver\led.o
LOAD obj\Debug\\code\cpu\ac46\driver\low_power.o
LOAD obj\Debug\\code\cpu\ac46\driver\pt2313.o
LOAD obj\Debug\\code\cpu\ac46\driver\sys_detect.o
LOAD obj\Debug\\code\cpu\ac46\driver\timer.o
LOAD obj\Debug\\code\cpu\ac46\driver\uart.o
                0x00300000                . = ORIGIN (ram0)

.data           0x00300000     0x4b34
 *(.data*)
 .data          0x00300000      0x104 obj\Debug\\code\apps\bt\aec\aec_api.o
                0x00300000                eq_tab
 .data          0x00300104        0x0 obj\Debug\\code\apps\bt\btstack\bt_configs_user.o
 .data          0x00300104        0x0 obj\Debug\\code\apps\bt\btstack\bt_key_deal.o
 .data          0x00300104        0x0 obj\Debug\\code\apps\bt\btstack\bt_key_msg.o
 .data          0x00300104        0x0 obj\Debug\\code\apps\bt\btstack\fcc_test.o
 .data          0x00300104        0x0 obj\Debug\\code\apps\fm\fm_api.o
 .data          0x00300104        0x0 obj\Debug\\code\apps\fm\fm_key.o
 .data          0x00300104        0x0 obj\Debug\\code\apps\fm\fm_prompt.o
 .data          0x00300104        0x0 obj\Debug\\code\apps\fm\fm_radio.o
 .data          0x00300104        0x0 obj\Debug\\code\apps\idle\idle.o
 .data          0x00300104        0x0 obj\Debug\\code\apps\idle\idle_key.o
 .data          0x00300104        0x0 obj\Debug\\code\apps\linein\dev_linein.o
 .data          0x00300104        0x0 obj\Debug\\code\apps\linein\linein.o
 .data          0x00300104        0x0 obj\Debug\\code\apps\linein\linein_key.o
 .data          0x00300104        0x0 obj\Debug\\code\apps\linein\linein_prompt.o
 .data          0x00300104        0x0 obj\Debug\\code\apps\main\main.o
 .data          0x00300104        0x0 obj\Debug\\code\apps\main\main_key.o
 .data          0x00300104        0x0 obj\Debug\\code\apps\main\vm_api.o
 .data          0x00300104        0x0 obj\Debug\\code\apps\music\ef_api.o
 .data          0x00300104        0x4 obj\Debug\\code\apps\music\music.o
                0x00300104                play_mode
 .data          0x00300108        0x0 obj\Debug\\code\apps\music\music_info.o
 .data          0x00300108        0x0 obj\Debug\\code\apps\music\music_key.o
 .data          0x00300108        0x0 obj\Debug\\code\apps\music\music_prompt.o
 .data          0x00300108        0x0 obj\Debug\\code\apps\music\play_sel.o
 .data          0x00300108        0x0 obj\Debug\\code\apps\record\rec_key.o
 .data          0x00300108       0x20 obj\Debug\\code\apps\record\record.o
                0x00300108                rec_folder_name
                0x00300110                rec_file_name
 .data          0x00300128        0x0 obj\Debug\\code\apps\rtc\irtc.o
 .data          0x00300128        0x0 obj\Debug\\code\apps\rtc\rtc.o
 .data          0x00300128        0x0 obj\Debug\\code\apps\rtc\rtc_key.o
 .data          0x00300128        0x0 obj\Debug\\code\apps\rtc\rtc_low_power.o
 .data          0x00300128        0x0 obj\Debug\\code\apps\rtc\rtc_prompt.o
 .data          0x00300128        0x0 obj\Debug\\code\apps\rtc\rtc_setting.o
 .data          0x00300128        0x0 obj\Debug\\code\apps\usb_device\dev_pc.o
 .data          0x00300128        0x0 obj\Debug\\code\apps\usb_device\pc_prompt.o
 .data          0x00300128        0x0 obj\Debug\\code\apps\usb_device\usb_device.o
 .data          0x00300128        0x0 obj\Debug\\code\apps\usb_device\usb_key.o
 .data          0x00300128        0x0 obj\Debug\\code\common\ASCII_lib.o
 .data          0x00300128        0x0 obj\Debug\\code\common\common.o
 .data          0x00300128        0x0 obj\Debug\\code\common\dev_manage\dev_ctl.o
 .data          0x00300128        0x0 obj\Debug\\code\common\fcvt.o
 .data          0x00300128        0x0 obj\Debug\\code\common\file_operate\file_operate.o
 .data          0x00300128        0x0 obj\Debug\\code\common\os_api\os_api.o
 .data          0x00300128       0x24 obj\Debug\\code\common\os_api\task_manage.o
                0x00300128                task_list
                0x00300144                task_connect_dev
 .data          0x0030014c        0x0 obj\Debug\\code\common\printf-stdarg.o
 .data          0x0030014c        0x0 obj\Debug\\code\common\ui\led7_drv.o
 .data          0x0030014c        0x0 obj\Debug\\code\common\ui\led_ui_api.o
 .data          0x0030014c        0x0 obj\Debug\\code\common\ui\ui_common.o
 .data          0x0030014c        0x0 obj\Debug\\code\common\voice_prompt\voice_prompt.o
 .data          0x0030014c        0x0 obj\Debug\\code\cpu\ac46\board\board_bt15_v0.o
 .data          0x0030014c        0x0 obj\Debug\\code\cpu\ac46\driver\M62429.o
 .data          0x0030014c        0x0 obj\Debug\\code\cpu\ac46\driver\clock.o
 .data          0x0030014c        0x0 obj\Debug\\code\cpu\ac46\driver\dac.o
 .data          0x0030014c        0x0 obj\Debug\\code\cpu\ac46\driver\encoder.o
 .data          0x0030014c        0x0 obj\Debug\\code\cpu\ac46\driver\interrupt_isr.o
 .data          0x0030014c       0x10 obj\Debug\\code\cpu\ac46\driver\key.o
                0x0030014c                get_key_tab
 .data          0x0030015c        0x0 obj\Debug\\code\cpu\ac46\driver\key_drv_ad.o
 .data          0x0030015c        0x0 obj\Debug\\code\cpu\ac46\driver\key_drv_io.o
 .data          0x0030015c        0x0 obj\Debug\\code\cpu\ac46\driver\key_drv_ir.o
 .data          0x0030015c        0x0 obj\Debug\\code\cpu\ac46\driver\key_drv_tch.o
 .data          0x0030015c        0x0 obj\Debug\\code\cpu\ac46\driver\key_voice.o
 .data          0x0030015c        0x0 obj\Debug\\code\cpu\ac46\driver\kok_detect.o
 .data          0x0030015c        0x0 obj\Debug\\code\cpu\ac46\driver\ladc.o
 .data          0x0030015c        0x0 obj\Debug\\code\cpu\ac46\driver\led.o
 .data          0x0030015c        0x0 obj\Debug\\code\cpu\ac46\driver\low_power.o
 .data          0x0030015c        0x0 obj\Debug\\code\cpu\ac46\driver\pt2313.o
 .data          0x0030015c        0x0 obj\Debug\\code\cpu\ac46\driver\sys_detect.o
 .data          0x0030015c        0x0 obj\Debug\\code\cpu\ac46\driver\timer.o
 .data          0x0030015c        0x0 obj\Debug\\code\cpu\ac46\driver\uart.o
 .data          0x0030015c        0x0 code\libs\dec_lib_ac46.a(music_api.o)
 .data          0x0030015c        0x0 code\libs\dec_lib_ac46.a(sup_dec_op.o)
 .data          0x0030015c       0x38 code\libs\dec_lib_ac46.a(decoder_phy.o)
                0x0030015c                find_dec_ops
                0x00300178                dec_type_fffr_enable
 .data          0x00300194        0x0 code\libs\cbuf.a(circular_buf.o)
 .data          0x00300194        0x0 code\libs\lib_dac.a(dac_init.o)
 .data          0x00300194        0x8 code\libs\lib_dac.a(dac_channel.o)
                0x00300194                g_dac_digital_max
                0x00300198                g_dac_digital_vol
 .data          0x0030019c        0x0 code\libs\sys_cfg_ac46.a(pll.o)
 .data          0x0030019c        0x0 code\libs\sys_cfg_ac46.a(reg.o)
 .data          0x0030019c        0x0 code\libs\sys_cfg_ac46.a(startup.o)
 .data          0x0030019c        0x0 code\libs\sys_cfg_ac46.a(system_cfg_file.o)
 .data          0x0030019c        0x0 code\libs\sys_cfg_ac46.a(hwi.o)
 .data          0x0030019c        0xc code\libs\sys_cfg_ac46.a(irq.o)
                0x0030019c                global_irq
 .data          0x003001a8        0x0 code\libs\sys_cfg_ac46.a(system_cfg.o)
 .data          0x003001a8        0x0 code\libs\aec_ac46.a(aec.o)
 .data          0x003001a8        0x0 code\libs\aec_ac46.a(aec_tst_sd.o)
 .data          0x003001a8        0x0 code\libs\aec_ac46.a(cdn3_btsyn.o)
 .data          0x003001a8        0x0 code\libs\aec_ac46.a(AGC.o)
 .data          0x003001a8        0x0 code\libs\libSpeech_dection.a(Speech_detection.o)
 .data          0x003001a8        0x0 code\libs\libDAGC.a(DAGC.o)
 .data          0x003001a8        0x0 code\libs\libDAGC.a(AGC.o)
 .data          0x003001a8        0x0 code\libs\libsbcdeocode.a(new_sbcdec.o)
 .data          0x003001a8        0x0 code\libs\lib_mp3_decode.a(mtst_mp3.o)
 .data          0x003001a8        0x0 code\libs\lib_mp3_decode.a(ID3tag_skip.o)
 .data          0x003001a8        0x0 code\libs\lib_mp3_decode.a(mpegaudio.o)
 .data          0x003001a8        0x0 code\libs\lib_mp3_decode.a(layer3.o)
 .data          0x003001a8        0x0 code\libs\lib_mp3_decode.a(mpeg_ctab.o)
 .data          0x003001a8        0x0 code\libs\lib_mp3_decode.a(mpeg_synth.o)
 .data          0x003001a8        0x0 code\libs\lib_mp3_decode.a(huffman.o)
 .data          0x003001a8        0x0 code\libs\lib_mp3_decode.a(layer12.o)
 .data          0x003001a8        0x0 code\libs\lib_wav_decode.a(testwav.o)
 .data          0x003001a8        0x0 code\libs\lib_wav_decode.a(wavdec_api.o)
 .data          0x003001a8        0x0 code\libs\lib_wav_decode.a(ima_adpcm.o)
 .data          0x003001a8        0x0 code\libs\lib_wav_decode.a(msadpcmdec.o)
 .data          0x003001a8        0x0 code\libs\ef_api_ac46.a(audio_ef.o)
 .data          0x003001a8        0x0 code\libs\lib_audio_effect.a(effect_api.o)
 .data          0x003001a8        0x0 code\libs\lib_audio_effect.a(eq.o)
 .data          0x003001a8        0x0 code\libs\lib_audio_effect.a(resample.o)
 .data          0x003001a8        0x0 code\libs\lib_audio_effect.a(resample_8.o)
 .data          0x003001a8        0x0 code\libs\lib_audio_effect.a(resample_qk.o)
 .data          0x003001a8        0x0 code\libs\lib_audio_effect.a(vol.o)
 .data          0x003001a8        0x0 code\libs\lib_wma_decode.a(mtst_wma.o)
 .data          0x003001a8        0x0 code\libs\lib_wma_decode.a(wma.o)
 .data          0x003001a8        0x0 code\libs\lib_wma_decode.a(wma_huff.o)
 .data          0x003001a8        0x0 code\libs\lib_wma_decode.a(wma_tab.o)
 .data          0x003001a8        0x0 code\libs\lib_wma_decode.a(wmadec.o)
 .data          0x003001a8        0x0 code\libs\lib_wma_decode.a(asf.o)
 .data          0x003001a8        0x0 code\libs\lib_wma_decode.a(aviobuf.o)
 .data          0x003001a8        0x0 code\libs\lib_wma_decode.a(bitstream.o)
 .data          0x003001a8        0x0 code\libs\lib_wma_decode.a(mdct.o)
 .data          0x003001a8        0x0 code\libs\lib_wma_decode.a(dv_wma.o)
 .data          0x003001a8        0x0 code\libs\dev_mg_lib.a(drv_manage.o)
 .data          0x003001a8        0x8 code\libs\dev_mg_lib.a(mango_dev_cache.o)
                0x003001a8                cache_mutex
 .data          0x003001b0        0x0 code\libs\dev_mg_lib.a(mbr.o)
 .data          0x003001b0        0x0 code\libs\dev_mg_lib.a(dev_updata_mode.o)
 .data          0x003001b0        0x0 code\libs\dev_mg_lib.a(dev_operate.o)
 .data          0x003001b0        0x0 code\libs\dev_mg_lib.a(fat_io.o)
 .data          0x003001b0        0x8 code\libs\dev_mg_lib.a(fs_io.o)
                0x003001b0                fs_list
 .data          0x003001b8        0x0 code\libs\dev_mg_lib.a(logic_dev_list.o)
 .data          0x003001b8        0x0 code\libs\dev_mg_lib.a(syd_io.o)
 .data          0x003001b8        0x0 code\libs\dev_mg_lib.a(vfs.o)
 .data          0x003001b8        0x0 code\libs\libtff.a(ff_api.o)
 .data          0x003001b8        0x0 code\libs\libtff.a(tff.o)
 .data          0x003001b8        0x0 code\libs\mem_ac46.a(mem_heap.o)
 .data          0x003001b8        0x0 code\libs\mem_ac46.a(sbrk.o)
 .data          0x003001b8        0x0 code\libs\mem_ac46.a(vmalloc.o)
 .data          0x003001b8        0x0 code\libs\mem_ac46.a(pmalloc.o)
 .data          0x003001b8       0x10 code\libs\sd.a(mango_dev_sd.o)
                0x003001b8                sd0_mutex
                0x003001c0                sd1_mutex
 .data          0x003001c8        0x0 code\libs\sd.a(sd_controller_interface.o)
 .data          0x003001c8        0x0 code\libs\sd.a(sd_global_var.o)
 .data          0x003001c8        0x0 code\libs\sd.a(sd_host_read.o)
 .data          0x003001c8        0x0 code\libs\sd.a(sd_host_read_end.o)
 .data          0x003001c8        0x0 code\libs\sd.a(sd_host_unmount.o)
 .data          0x003001c8        0x0 code\libs\sd.a(sd_host_write.o)
 .data          0x003001c8        0x0 code\libs\sd.a(sd_host_write_end.o)
 .data          0x003001c8        0x0 code\libs\sd.a(sdmmc_init.o)
 .data          0x003001c8        0x0 code\libs\sd.a(suspend_sdmmc.o)
 .data          0x003001c8        0x0 code\libs\sd.a(sd_host_send_csd.o)
 .data          0x003001c8        0x0 code\libs\sd.a(sd_host_stop_trans.o)
 .data          0x003001c8        0x0 code\libs\sd.a(sd_host_hw.o)
 .data          0x003001c8        0x0 code\libs\sd.a(sd_wait_idle.o)
 .data          0x003001c8        0x0 code\libs\sd.a(sdmmc_det.o)
 .data          0x003001c8        0x0 code\libs\sd.a(sd_host_reg.o)
 .data          0x003001c8        0x0 code\libs\sd.a(sd_read_start.o)
 .data          0x003001c8        0x0 code\libs\sd.a(sd_send_command.o)
 .data          0x003001c8        0x0 code\libs\sd.a(sd_write_start.o)
 .data          0x003001c8        0x0 code\libs\sd.a(sd_host_status.o)
 .data          0x003001c8        0x0 code\libs\sd.a(sd_host_init.o)
 .data          0x003001c8        0x0 code\libs\sd.a(sd_host_mount.o)
 .data          0x003001c8        0x0 code\libs\sd.a(sd_host_timeout.o)
 .data          0x003001c8        0x0 code\libs\sd.a(sd_init.o)
 .data          0x003001c8        0x0 code\libs\sd.a(sdmmc_host_set_bus_width.o)
 .data          0x003001c8        0x0 code\libs\sd.a(sdmmc_host_set_hispeed.o)
 .data          0x003001c8        0x0 code\libs\sd.a(mmc_host_send_rca.o)
 .data          0x003001c8        0x0 code\libs\sd.a(mmc_host_set_bus_width.o)
 .data          0x003001c8        0x0 code\libs\sd.a(mmc_host_set_hispeed.o)
 .data          0x003001c8        0x0 code\libs\sd.a(sd_host_all_send_cid.o)
 .data          0x003001c8        0x0 code\libs\sd.a(sd_host_reset.o)
 .data          0x003001c8        0x0 code\libs\sd.a(sd_host_sd_status.o)
 .data          0x003001c8        0x0 code\libs\sd.a(sd_host_send_if_cond.o)
 .data          0x003001c8        0x0 code\libs\sd.a(sd_host_send_rca.o)
 .data          0x003001c8        0x0 code\libs\sd.a(sd_host_set_bus_width.o)
 .data          0x003001c8        0x0 code\libs\sd.a(sd_host_set_hispeed.o)
 .data          0x003001c8        0x0 code\libs\sd.a(sd_host_switch_func.o)
 .data          0x003001c8        0x0 code\libs\sd.a(sd_select_card.o)
 .data          0x003001c8        0x0 code\libs\sd.a(sd_send_scr.o)
 .data          0x003001c8        0x0 code\libs\sd.a(sd_chk_ctl.o)
 .data          0x003001c8        0x0 code\libs\sd.a(sd_host_identification.o)
 .data          0x003001c8        0x0 code\libs\sd.a(mmc_host_send_op_cond.o)
 .data          0x003001c8        0x0 code\libs\sd.a(sd_host_app_cmd.o)
 .data          0x003001c8        0x0 code\libs\sd.a(sd_host_send_op_cond.o)
 .data          0x003001c8        0x0 code\libs\usb.a(mango_dev_usb_slave.o)
 .data          0x003001c8        0x0 code\libs\usb.a(usb_device_mount.o)
 .data          0x003001c8        0x0 code\libs\usb.a(usb_device_unmount.o)
 .data          0x003001c8        0x0 code\libs\usb.a(usb_slave_mic_adc.o)
 .data          0x003001c8        0x0 code\libs\usb.a(usb_slave_spk_dac.o)
 .data          0x003001c8        0x0 code\libs\usb.a(usbs_ctl_isr.o)
 .data          0x003001c8        0x0 code\libs\usb.a(usb_class_setting_libs.o)
 .data          0x003001c8        0x0 code\libs\usb.a(usb_device_io.o)
 .data          0x003001c8        0x0 code\libs\usb.a(usb_hid_key.o)
 .data          0x003001c8        0x0 code\libs\usb.a(usb_slave_ctl.o)
 .data          0x003001c8        0x0 code\libs\usb.a(usb_slave_scsi_libs.o)
 .data          0x003001c8        0x0 code\libs\usb.a(usb_slave_sd.o)
 .data          0x003001c8        0x0 code\libs\usb.a(usb_device_status.o)
 .data          0x003001c8        0x0 code\libs\usb.a(usb_slave_online.o)
 .data          0x003001c8        0x8 code\libs\usb.a(mango_dev_usb.o)
                0x003001c8                usb_mutex
 .data          0x003001d0        0x0 code\libs\usb.a(usb_global_var.o)
 .data          0x003001d0        0x0 code\libs\usb.a(usb_host_mount.o)
 .data          0x003001d0        0x0 code\libs\usb.a(usb_host_read.o)
 .data          0x003001d0        0x0 code\libs\usb.a(usb_host_unmount.o)
 .data          0x003001d0        0x0 code\libs\usb.a(usb_host_write.o)
 .data          0x003001d0        0x0 code\libs\usb.a(usb_read_remain.o)
 .data          0x003001d0        0x0 code\libs\usb.a(usb_suspend.o)
 .data          0x003001d0        0x0 code\libs\usb.a(USB_Host_dev_enum_libs.o)
 .data          0x003001d0        0x0 code\libs\usb.a(usb_control_transfers.o)
 .data          0x003001d0        0x0 code\libs\usb.a(usb_ctlXfer.o)
 .data          0x003001d0        0x0 code\libs\usb.a(usb_descriptor_parser.o)
 .data          0x003001d0        0x0 code\libs\usb.a(usb_bulk_only_receive.o)
 .data          0x003001d0        0x0 code\libs\usb.a(usb_bulk_only_transfer.o)
 .data          0x003001d0        0x0 code\libs\usb.a(usb_ufi_read10.o)
 .data          0x003001d0        0x0 code\libs\usb.a(usb_ufi_write10.o)
 .data          0x003001d0        0x0 code\libs\usb.a(usbh_msd_enum.o)
 .data          0x003001d0        0x0 code\libs\usb.a(usbh_msd_parser.o)
 .data          0x003001d0        0x0 code\libs\usb.a(usb_host_reg_libs.o)
 .data          0x003001d0        0x0 code\libs\usb.a(usb_reg.o)
 .data          0x003001d0        0x0 code\libs\usb.a(usb_host_status.o)
 .data          0x003001d0        0x0 code\libs\usb.a(usb_online.o)
 .data          0x003001d0        0x0 code\libs\usb.a(Descriptor.o)
 .data          0x003001d0        0x0 code\libs\usb.a(set_descriptor_libs.o)
 .data          0x003001d0        0x0 code\libs\usb.a(usb_host_timeout.o)
 .data          0x003001d0        0x0 code\libs\usb.a(get_max_LUN.o)
 .data          0x003001d0        0x0 code\libs\usb.a(usb_host_clear_feature.o)
 .data          0x003001d0        0x0 code\libs\usb.a(CBW_init.o)
 .data          0x003001d0        0x0 code\libs\usb.a(usb_bulk_only_send.o)
 .data          0x003001d0        0x0 code\libs\usb.a(usb_host_scsi_cmd_libs.o)
 .data          0x003001d0        0x0 code\libs\librtos_bt15.a(os_core.o)
 .data          0x003001d0        0x0 code\libs\librtos_bt15.a(os_mutex.o)
 .data          0x003001d0        0x0 code\libs\librtos_bt15.a(os_sem.o)
 .data          0x003001d0        0x0 code\libs\librtos_bt15.a(os_task.o)
 .data          0x003001d0        0x0 code\libs\librtos_bt15.a(os_time.o)
 .data          0x003001d0        0x0 code\libs\librtos_bt15.a(os_cpu.o)
 .data          0x003001d0        0x0 code\libs\librtos_bt15.a(os_cpu_c.o)
 .data          0x003001d0        0x4 code\libs\lib_cache_vm_bt15.a(vm.o)
 .data          0x003001d4        0x0 code\libs\sydf_ac46.a(syd_file.o)
 .data          0x003001d4        0x0 code\libs\lib_fm_resample.a(FM_resample.o)
 .data          0x003001d4        0x0 code\libs\lib_fm_driver.a(fm_digital.o)
 .data          0x003001d4        0x0 code\libs\lib_fm_driver.a(fmrx_driver.o)
 .data          0x003001d4        0x0 code\libs\lib_fm_driver.a(fm_analog.o)
 .data          0x003001d4        0x0 code\libs\lib_fm_driver.a(fm_coef.o)
 .data          0x003001d4        0x0 code\libs\libBtCalling.a(BT_Calling.o)
 .data          0x003001d4        0x0 code\libs\libBtCalling.a(aecmain.o)
 .data          0x003001d4        0x0 code\libs\libBtCalling.a(ns_core.o)
 .data          0x003001d4        0x0 code\libs\libBtCalling.a(aec_core.o)
 .data          0x003001d4       0x80 code\libs\libBtCalling.a(aec_rdft.o)
                0x003001d4                rdft_wk3ri_first_int
                0x00300214                rdft_wk3ri_second_int
 .data          0x00300254        0x0 code\libs\lib_usb_syn.a(usb_syn.o)
 .data          0x00300254        0x4 code\libs\libbt_bt15.a(a2dp.o)
                0x00300254                is_support_AAC
 .data          0x00300258        0x0 code\libs\libbt_bt15.a(avctp.o)
 .data          0x00300258        0x0 code\libs\libbt_bt15.a(avctp_user.o)
 .data          0x00300258        0x0 code\libs\libbt_bt15.a(avdtp.o)
 .data          0x00300258        0x0 code\libs\libbt_bt15.a(a2dp_media_file.o)
 .data          0x00300258        0x0 code\libs\libbt_bt15.a(h4_transport.o)
 .data          0x00300258        0x0 code\libs\libbt_bt15.a(nfc_blueteeth.o)
 .data          0x00300258        0x0 code\libs\libbt_bt15.a(hci.o)
 .data          0x00300258        0x0 code\libs\libbt_bt15.a(hci_cmds.o)
 .data          0x00300258        0x0 code\libs\libbt_bt15.a(hci_dump.o)
 .data          0x00300258        0x0 code\libs\libbt_bt15.a(hfp_profile.o)
 .data          0x00300258        0x0 code\libs\libbt_bt15.a(hid.o)
 .data          0x00300258        0x0 code\libs\libbt_bt15.a(l2cap.o)
 .data          0x00300258        0x4 code\libs\libbt_bt15.a(l2cap_signaling.o)
 .data          0x0030025c        0x0 code\libs\libbt_bt15.a(linked_list.o)
 .data          0x0030025c        0x0 code\libs\libbt_bt15.a(rfcomm.o)
 .data          0x0030025c        0x0 code\libs\libbt_bt15.a(sdp.o)
 .data          0x0030025c        0x0 code\libs\libbt_bt15.a(sdp_master.o)
 .data          0x0030025c       0x9c code\libs\libbt_bt15.a(sdp_util.o)
                0x0030025c                pnp_record
 .data          0x003002f8        0x0 code\libs\libbt_bt15.a(spp_profile.o)
 .data          0x003002f8        0x0 code\libs\libbt_bt15.a(utils.o)
 .data          0x003002f8       0x94 code\libs\libbt_bt15.a(bt_configs.o)
                0x003002f8                bt_cfg
                0x00300329                bt_hid_info
                0x00300350                bt_test_cfg
 .data          0x0030038c       0x38 code\libs\libbt_bt15.a(btstack.o)
                0x0030038c                module_btstack
 .data          0x003003c4        0x4 code\libs\libbt_bt15.a(phone_talking.o)
 .data          0x003003c8        0x0 code\libs\libbt_bt15.a(resource_manage.o)
 .data          0x003003c8        0x0 code\libs\libbt_bt15.a(run_loop.o)
 .data          0x003003c8        0x0 code\libs\libbt_bt15.a(spp_accel.o)
 .data          0x003003c8        0x0 code\libs\libbt_bt15.a(analog.o)
 .data          0x003003c8        0x0 code\libs\libbt_bt15.a(device_manager.o)
 .data          0x003003c8        0x0 code\libs\libbt_bt15.a(hci_bottom.o)
 .data          0x003003c8        0x0 code\libs\libbt_bt15.a(inquiry_scan.o)
 .data          0x003003c8        0x0 code\libs\libbt_bt15.a(lbuf.o)
 .data          0x003003c8        0x0 code\libs\libbt_bt15.a(link_controller.o)
 .data          0x003003c8        0x0 code\libs\libbt_bt15.a(lmp.o)
 .data          0x003003c8        0x0 code\libs\libbt_bt15.a(lmp_custom.o)
 .data          0x003003c8       0x28 code\libs\libbt_bt15.a(lmp_main.o)
                0x003003c8                module_btlmp
 .data          0x003003f0        0x0 code\libs\libbt_bt15.a(mdm.o)
 .data          0x003003f0        0x0 code\libs\libbt_bt15.a(radio.o)
 .data          0x003003f0        0x0 code\libs\libbt_bt15.a(role_switch_page.o)
 .data          0x003003f0        0x0 code\libs\libbt_bt15.a(sync_word.o)
 .data          0x003003f0        0x0 code\libs\libbt_bt15.a(test_dut.o)
 .data          0x003003f0        0x0 code\libs\libbt_bt15.a(test_master.o)
 .data          0x003003f0        0x0 code\libs\libbt_bt15.a(vsprintf.o)
 .data          0x003003f0        0x0 code\libs\libbt_bt15.a(apple_MA_L.o)
 .data          0x003003f0        0x0 code\libs\libbt_bt15.a(hciattach_bt.o)
 .data          0x003003f0        0x0 code\libs\libbt_bt15.a(btstack_memory.o)
 .data          0x003003f0        0x0 code\libs\libbt_bt15.a(database_file.o)
 .data          0x003003f0        0x0 code\libs\libbt_bt15.a(hfp_ag_profile.o)
 .data          0x003003f0        0x0 code\libs\libbt_bt15.a(memory_pool.o)
 .data          0x003003f0        0x0 code\libs\libbt_bt15.a(remote_device_db_memory.o)
 .data          0x003003f0        0x0 code\libs\libbt_bt15.a(Bluetooth_Authentication.o)
 .data          0x003003f0        0x0 code\libs\libbt_bt15.a(Crypto_hash.o)
 .data          0x003003f0        0x0 code\libs\libbt_bt15.a(authencation.o)
 .data          0x003003f0        0x0 code\libs\libbt_bt15.a(bigint.o)
 .data          0x003003f0        0x0 code\libs\libbt_bt15.a(ecdh.o)
 .data          0x003003f0        0x0 code\libs\libbt_bt15.a(hmac.o)
 .data          0x003003f0        0x0 code\libs\libbt_bt15.a(prbs9_table.o)
 .data          0x003003f0        0x0 code\libs\libbt_bt15.a(sha256.o)
 .data          0x003003f0        0x0 code\libs\libbt_bt15.a(BINT_MUL_CORE.o)
 .data          0x003003f0        0x0 code\libs\libbt_bt15.a(endian.o)
 .data          0x003003f0        0x0 code\libs\lib_btrepair.a(BT15_repair.o)
 .data          0x003003f0        0x0 code\libs\lib_aac_decode.a(aac_main.o)
 .data          0x003003f0        0x0 code\libs\lib_aac_decode.a(common.o)
 .data          0x003003f0       0x88 code\libs\lib_aac_decode.a(decoder.o)
                0x003003f0                err_msg
 .data          0x00300478        0x0 code\libs\lib_aac_decode.a(filtbank.o)
 .data          0x00300478        0x0 code\libs\lib_aac_decode.a(mdct.o)
 .data          0x00300478        0x0 code\libs\lib_aac_decode.a(output.o)
 .data          0x00300478        0x0 code\libs\lib_aac_decode.a(syntax.o)
 .data          0x00300478        0x0 code\libs\lib_aac_decode.a(bits.o)
 .data          0x00300478        0x0 code\libs\lib_aac_decode.a(cfft.o)
 .data          0x00300478       0xc0 code\libs\lib_aac_decode.a(huffman.o)
                0x00300478                hcb_table
                0x003004a8                hcb_2_quad_table
                0x003004d8                hcb_2_pair_table
                0x00300508                hcb_bin_table
 .data          0x00300538        0x0 code\libs\lib_aac_decode.a(pulse.o)
 .data          0x00300538       0x60 code\libs\lib_aac_decode.a(specrec.o)
                0x00300538                swb_offset_1024_window
                0x00300568                swb_offset_128_window
 .data          0x00300598        0x0 code\libs\lib_aac_decode.a(tns.o)
 .data          0x00300598        0x0 code\libs\lib_aac_decode.a(is.o)
 .data          0x00300598        0x0 code\libs\lib_aac_decode.a(ms.o)
 .data          0x00300598        0x0 code\libs\libBt_a2dp_sync.a(bt_a2dp_sync.o)
 .data          0x00300598        0x0 code\libs\libBt_a2dp_sync.a(syn_ps.o)
 .data          0x00300598        0x0 code\libs\clk_ac46.a(clock_api.o)
 .data          0x00300598        0x0 code\libs\clk_ac46.a(clock_moudle.o)
 .data          0x00300598        0x0 code\libs\clk_ac46.a(clock_app.o)
 .data          0x00300598        0x0 code\libs\clk_ac46.a(pll_moudle.o)
 .data          0x00300598        0x0 code\libs\lib_ape_decode.a(mtst_ape.o)
 .data          0x00300598        0x0 code\libs\lib_ape_decode.a(apedec.o)
 .data          0x00300598        0x0 code\libs\lib_ape_decode.a(dv_ape.o)
 .data          0x00300598        0x0 code\libs\lib_flac_decode.a(mtst_flac.o)
 .data          0x00300598        0x0 code\libs\lib_flac_decode.a(flacdec.o)
 .data          0x00300598       0x18 code\libs\lib_encode.a(encode.o)
                0x00300598                enc_ops_list
                0x003005a4                enc_ops_list_t
 .data          0x003005b0        0x0 code\libs\lib_encode.a(dev_write_api.o)
 .data          0x003005b0       0x18 code\libs\lib_adpcm_encode.a(en_adpcm_test.o)
                0x003005b0                adpcmcontobj_opst
 .data          0x003005c8        0x0 code\libs\lib_adpcm_encode.a(en_adpcm.o)
 .data          0x003005c8        0x0 code\libs\lib_mp2_encode.a(mp2_test.o)
 .data          0x003005c8        0x0 code\libs\lib_mp2_encode.a(mp2dsp.o)
 .data          0x003005c8        0x0 code\libs\lib_mp2_encode.a(encodemp2.o)
 .data          0x003005c8        0x0 C:\JL\dv10\lib\libc.a(lib_a-memcmp.o)
 .data          0x003005c8        0x0 C:\JL\dv10\lib\libc.a(lib_a-memcpy.o)
 .data          0x003005c8        0x0 C:\JL\dv10\lib\libc.a(lib_a-memmove.o)
 .data          0x003005c8        0x0 C:\JL\dv10\lib\libc.a(lib_a-memset.o)
 .data          0x003005c8        0x0 C:\JL\dv10\lib\libc.a(lib_a-rand.o)
 .data          0x003005c8        0x0 C:\JL\dv10\lib\libc.a(lib_a-strcmp.o)
 .data          0x003005c8        0x0 C:\JL\dv10\lib\libc.a(lib_a-strcpy.o)
 .data          0x003005c8        0x0 C:\JL\dv10\lib\libc.a(lib_a-strlen.o)
 .data          0x003005c8        0x0 C:\JL\dv10\lib\libc.a(lib_a-strstr.o)
 .data          0x003005c8      0x428 C:\JL\dv10\lib\libc.a(lib_a-impure.o)
                0x003005c8                _impure_ptr
 .data          0x003009f0        0x0 C:\JL\dv10\lib\libc.a(lib_a-memchr.o)
 .data          0x003009f0        0x0 C:\JL\dv10\lib\libc.a(lib_a-strchr.o)
 .data          0x003009f0        0x0 C:\JL\dv10\lib\libgcc.a(_umodsi3.o)
 .data          0x003009f0        0x0 C:\JL\dv10\lib\libgcc.a(_modsi3.o)
 .data          0x003009f0        0x0 C:\JL\dv10\lib\libgcc.a(_muldi3.o)
 .data          0x003009f0        0x0 C:\JL\dv10\lib\libgcc.a(_umulsi3_highpart.o)
 .data          0x003009f0        0x0 C:\JL\dv10\lib\libgcc.a(_lshrdi3.o)
 .data          0x003009f0        0x0 C:\JL\dv10\lib\libgcc.a(_ashldi3.o)
 .data          0x003009f0        0x0 C:\JL\dv10\lib\libgcc.a(_divdi3.o)
 .data          0x003009f0        0x0 C:\JL\dv10\lib\libgcc.a(_udivdi3.o)
 .data          0x003009f0        0x0 C:\JL\dv10\lib\libgcc.a(_umoddi3.o)
 .data          0x003009f0        0x0 C:\JL\dv10\lib\libgcc.a(divsf3.o)
 .data          0x003009f0        0x0 C:\JL\dv10\lib\libgcc.a(subsf3.o)
 .data          0x003009f0        0x0 C:\JL\dv10\lib\libgcc.a(fixsfsi.o)
 .data          0x003009f0        0x0 C:\JL\dv10\lib\libgcc.a(floatsisf.o)
 .data          0x003009f0        0x0 C:\JL\dv10\lib\libgcc.a(_clz.o)
 .data          0x003009f0        0x0 C:\JL\dv10\lib\libgcc.a(_clzsi2.o)
                0x003009f0                _system_cfg_begin = .
 *(.system_cfg)
 .system_cfg    0x003009f0       0x55 code\libs\libbt_bt15.a(bt_configs.o)
 .system_cfg    0x00300a45        0x4 code\libs\libbt_bt15.a(database_file.o)
                0x00300a49                _system_cfg_end = .
                0x00300a4c                . = ALIGN (0x4)
 *fill*         0x00300a49        0x3 00
 *lbuf.o(.text .rodata*)
 .text          0x00300a4c      0x248 code\libs\libbt_bt15.a(lbuf.o)
                0x00300a4c                lbuf_init
                0x00300a68                lbuf_alloc
                0x00300ae0                lbuf_empty
                0x00300aec                lbuf_push
                0x00300b20                lbuf_pop
                0x00300b50                lbuf_free
                0x00300c08                lbuf_clear
                0x00300c34                lbuf_realloc
 *run_loop.o(.text .rodata*)
 .text          0x00300c94      0x1c4 code\libs\libbt_bt15.a(run_loop.o)
                0x00300c94                __timer_register
                0x00300cdc                __timer_set
                0x00300d04                __timer_delete
                0x00300d18                __timer_delete_region
                0x00300d50                __timer_delete_all
                0x00300d80                __timer_schedule_hi
                0x00300dc0                __timer_schedule
                0x00300e00                __run_loop_register
                0x00300e34                __run_loop_schedule
 *inquiry_scan.o(.text .rodata*)
 .text          0x00300e58      0xe9c code\libs\libbt_bt15.a(inquiry_scan.o)
                0x003013b4                register_page_timeout_param
                0x003013c4                page_restart
                0x00301414                inquiry_restart
                0x00301524                get_eir_data_handle_register
                0x00301534                inquiry_pending_fun
                0x00301574                inquiry_page_stop
                0x003015dc                inquiry_page_run
 .rodata.str1.4
                0x00301cf4        0xe code\libs\libbt_bt15.a(inquiry_scan.o)
                                 0x14 (size before relaxing)
 *fill*         0x00301d02        0x2 00
 .rodata        0x00301d04       0x10 code\libs\libbt_bt15.a(inquiry_scan.o)
 *link_controller.o(.text .rodata*)
 .text          0x00301d14      0x77c code\libs\libbt_bt15.a(link_controller.o)
                0x00301d38                __link_get_tx_packet
                0x00301d70                __link_get_rx_packet
                0x00301e20                __get_packet_len
                0x00301e7c                set_l2cap_flow_ctrl
                0x00301e8c                reset_rx_flow
                0x0030228c                rf_rx_handler
                0x00302384                link_ctrl_tx_clear
                0x003023b0                link_ctrl_set_state
                0x00302424                active_link_rx_register
                0x00302438                link_ctrl_rx_init
                0x00302460                link_ctrl_register
                0x00302470                bt_debug_isr
 .rodata        0x00302490       0x24 code\libs\libbt_bt15.a(link_controller.o)
 *irq.o(.text .rodata*)
 .text          0x003024b4       0xf4 code\libs\sys_cfg_ac46.a(irq.o)
                0x003024b4                global_irq_notify_schedule
                0x003024f0                soft_irq_handler
                0x00302504                __global_irq_disable
                0x00302514                __global_irq_enable
                0x00302538                global_irq_notify_set
                0x00302548                global_irq_notify_del
                0x0030255c                global_irq_notify_register
                0x00302598                global_interrupt_enable
 *_umodsi3.o(.text .rodata*)
 .text          0x003025a8       0x18 C:\JL\dv10\lib\libgcc.a(_umodsi3.o)
                0x003025a8                __umodsi3
 *_modsi3.o(.text .rodata*)
 .text          0x003025c0       0x18 C:\JL\dv10\lib\libgcc.a(_modsi3.o)
                0x003025c0                __modsi3
 *_muldi3.o(.text .rodata*)
 .text          0x003025d8       0x4c C:\JL\dv10\lib\libgcc.a(_muldi3.o)
                0x003025d8                __muldi3
 *_umulsi3_highpart.o(.text .rodata*)
 .text          0x00302624       0x20 C:\JL\dv10\lib\libgcc.a(_umulsi3_highpart.o)
                0x00302624                __umulsi3_highpart
 *_lshrdi3.o(.text .rodata*)
 .text          0x00302644       0x34 C:\JL\dv10\lib\libgcc.a(_lshrdi3.o)
                0x00302644                __lshrdi3
 *_ashldi3.o(.text .rodata*)
 .text          0x00302678       0x34 C:\JL\dv10\lib\libgcc.a(_ashldi3.o)
                0x00302678                __ashldi3
 *_divdi3.o(.text .rodata*)
 .text          0x003026ac      0x428 C:\JL\dv10\lib\libgcc.a(_divdi3.o)
                0x003026ac                __divdi3
 *_udivdi3.o(.text .rodata*)
 .text          0x00302ad4      0x3f0 C:\JL\dv10\lib\libgcc.a(_udivdi3.o)
                0x00302ad4                __udivdi3
 *_umoddi3.o(.text .rodata*)
 .text          0x00302ec4      0x3d0 C:\JL\dv10\lib\libgcc.a(_umoddi3.o)
                0x00302ec4                __umoddi3
 *_clz.o(.text .rodata*)
 .text          0x00303294        0x0 C:\JL\dv10\lib\libgcc.a(_clz.o)
 .rodata        0x00303294      0x100 C:\JL\dv10\lib\libgcc.a(_clz.o)
                0x00303294                __clz_tab
 *lib_a-impure.o(.text .rodata*)
 .text          0x00303394        0x0 C:\JL\dv10\lib\libc.a(lib_a-impure.o)
 .rodata        0x00303394        0x4 C:\JL\dv10\lib\libc.a(lib_a-impure.o)
                0x00303394                _global_impure_ptr
 .rodata.str1.4
                0x00303398        0x4 C:\JL\dv10\lib\libc.a(lib_a-impure.o)
 *(.clock_lib)
 .clock_lib     0x0030339c       0xb0 code\libs\clk_ac46.a(clock_app.o)
                0x0030339c                clock_set_freq_fast
 *(.comm)
 .comm          0x0030344c       0x18 obj\Debug\\code\cpu\ac46\driver\uart.o
                0x0030344c                putbyte
                0x00303458                putchar
 .comm          0x00303464       0xb8 code\libs\sys_cfg_ac46.a(reg.o)
                0x00303464                ISR_PUSH_REG
                0x003034c8                ISR_POP_REG
 .comm          0x0030351c       0x1a code\libs\sys_cfg_ac46.a(startup.o)
                0x0030351c                handle__rf_rx_handler
 *fill*         0x00303536        0x2 00
 .comm          0x00303538       0x58 code\libs\librtos_bt15.a(os_core.o)
                0x00303538                OSIntEnter
                0x00303564                OSIntExit
 .comm          0x00303590      0x4ac code\libs\libbt_bt15.a(analog.o)
                0x00303590                agc_set
                0x00303708                eut_agc_set
                0x00303858                tx_pwr_set
                0x00303950                eut_tx_pwr_set
 .comm          0x00303a3c       0x9c code\libs\libbt_bt15.a(device_manager.o)
                0x00303ab0                stack_role_swhitch_done
                0x00303ac0                stack_role_swhitch_start
 .comm          0x00303ad8      0x9a0 code\libs\libbt_bt15.a(lmp.o)
                0x00303ccc                lmp_esco_set_time_align
                0x00303f58                connection_for_addr
                0x00303f68                connection_for_handl
                0x00303f78                deal_ss_encry_req
                0x0030403c                lmp_pending_fun
                0x0030416c                lmp_connection_run
                0x003043a8                lmp_restart_run
 .comm          0x00304478       0x5c code\libs\libbt_bt15.a(lmp_main.o)
                0x00304478                lmp_tick_notify
 .comm          0x003044d4       0x50 code\libs\libbt_bt15.a(mdm.o)
                0x003044d4                check_3M_deal
                0x00304500                close_3M_deal
 .comm          0x00304524      0x538 code\libs\libbt_bt15.a(radio.o)
                0x00304524                timeout_switch_ab_train
                0x00304554                radio_set_exchg_table
                0x00304598                radio_get_exchg_table
                0x003045ac                radio_set_eninv
                0x003045cc                radio_set_esco_next
                0x003045d4                radio_set_esco_rsvd
                0x003045dc                radio_set_channel
                0x00304618                frame_ctrl
                0x00304658                slot_align_start
                0x00304678                slot_align_fun
                0x003046cc                delay_2slot_rise
                0x00304720                radio_set_afh
                0x00304914                __write_reg_encry
                0x003049a0                __write_reg_encry_enable
                0x003049dc                __write_reg_encry_disable
                0x00304a00                __write_reg_packet_type
                0x00304a20                __write_reg_txinfo
 .comm          0x00304a5c       0xc8 code\libs\libbt_bt15.a(test_dut.o)
                0x00304a5c                test_dut_pending_fun
                0x00304a70                test_connection_run
 *(.comm_ro)
 .comm_ro       0x00304b24       0x10 code\libs\libbt_bt15.a(lmp.o)
                0x00304b34                . = ALIGN (0x4)

.bss            0x00304b34     0x5e78
 *(.stack)
 .stack         0x00304b34      0x100 code\libs\sys_cfg_ac46.a(startup.o)
                0x00304c34                stack
 *(.sddata*)
 *(.bss)
 .bss           0x00304c34        0x0 obj\Debug\\code\apps\bt\aec\aec_api.o
 .bss           0x00304c34        0x4 obj\Debug\\code\apps\bt\btstack\bt_configs_user.o
                0x00304c34                btstack_info_init
 .bss           0x00304c38       0x40 obj\Debug\\code\apps\bt\btstack\bt_key_deal.o
                0x00304c38                bBtPlayFlag
                0x00304c3c                rec_bt_api
                0x00304c40                psel_p
 .bss           0x00304c78        0x0 obj\Debug\\code\apps\bt\btstack\bt_key_msg.o
 .bss           0x00304c78        0x0 obj\Debug\\code\apps\bt\btstack\fcc_test.o
 .bss           0x00304c78       0x10 obj\Debug\\code\apps\fm\fm_api.o
                0x00304c78                fm_init_flag
                0x00304c7c                fm_rec_buf
 .bss           0x00304c88        0x0 obj\Debug\\code\apps\fm\fm_key.o
 .bss           0x00304c88        0x0 obj\Debug\\code\apps\fm\fm_prompt.o
 .bss           0x00304c88        0x8 obj\Debug\\code\apps\fm\fm_radio.o
                0x00304c88                bFmScanStop
                0x00304c8c                rec_fm_api
 .bss           0x00304c90        0x4 obj\Debug\\code\apps\idle\idle.o
                0x00304c90                show_standby_info_cnt
 .bss           0x00304c94        0x0 obj\Debug\\code\apps\idle\idle_key.o
 .bss           0x00304c94        0x0 obj\Debug\\code\apps\linein\dev_linein.o
 .bss           0x00304c94        0x0 obj\Debug\\code\apps\linein\linein.o
 .bss           0x00304c94        0x0 obj\Debug\\code\apps\linein\linein_key.o
 .bss           0x00304c94        0x0 obj\Debug\\code\apps\linein\linein_prompt.o
 .bss           0x00304c94       0x20 obj\Debug\\code\apps\main\main.o
                0x00304c94                bir_5_plus
                0x00304c98                bir_10_plus
                0x00304c9c                bir_100_plus
                0x00304ca0                bir_200_plus
                0x00304ca4                bModeOfAuxContained
                0x00304ca8                bOneKeyToUsb_flag
                0x00304cac                bOneKeyToSd_flag
                0x00304cb0                bExitRecordModePlayLastRecordedFileFlag
                0x00304cb1                usb_in_flag
                0x00304cb2                sd_in_flag
 .bss           0x00304cb4        0x0 obj\Debug\\code\apps\main\main_key.o
 .bss           0x00304cb4        0x8 obj\Debug\\code\apps\main\vm_api.o
                0x00304cb4                vm_ptr
                0x00304cb8                vm_cache
 .bss           0x00304cbc        0x0 obj\Debug\\code\apps\music\ef_api.o
 .bss           0x00304cbc       0x2c obj\Debug\\code\apps\music\music.o
                0x00304cbc                dwLastRecFile
                0x00304cc0                bSendPrevFileCmdCnt
                0x00304cc4                bIfRecordFolder
                0x00304cc8                bAuxFmBtReplay_cnt
                0x00304ccc                mp3_intro_play
                0x00304cd0                bIntro_play_cnt
                0x00304cd4                bRecReplayFlag
                0x00304cd8                dec_dev_changed
                0x00304cdc                eq_mode
                0x00304ce0                bStop_state
                0x00304ce4                bPause_state
 .bss           0x00304ce8        0x0 obj\Debug\\code\apps\music\music_info.o
 .bss           0x00304ce8        0x0 obj\Debug\\code\apps\music\music_key.o
 .bss           0x00304ce8        0x0 obj\Debug\\code\apps\music\music_prompt.o
 .bss           0x00304ce8        0x4 obj\Debug\\code\apps\music\play_sel.o
                0x00304ce8                psel
 .bss           0x00304cec        0x0 obj\Debug\\code\apps\record\rec_key.o
 .bss           0x00304cec       0x84 obj\Debug\\code\apps\record\record.o
                0x00304cec                g_rec_ctl
 .bss           0x00304d70        0x0 obj\Debug\\code\apps\rtc\irtc.o
 .bss           0x00304d70        0x0 obj\Debug\\code\apps\rtc\rtc.o
 .bss           0x00304d70        0x0 obj\Debug\\code\apps\rtc\rtc_key.o
 .bss           0x00304d70        0x0 obj\Debug\\code\apps\rtc\rtc_low_power.o
 .bss           0x00304d70        0x0 obj\Debug\\code\apps\rtc\rtc_prompt.o
 .bss           0x00304d70        0x0 obj\Debug\\code\apps\rtc\rtc_setting.o
 .bss           0x00304d70        0x0 obj\Debug\\code\apps\usb_device\dev_pc.o
 .bss           0x00304d70        0x4 obj\Debug\\code\apps\usb_device\pc_prompt.o
                0x00304d70                pc_prompt_playing
 .bss           0x00304d74        0x0 obj\Debug\\code\apps\usb_device\usb_device.o
 .bss           0x00304d74        0x0 obj\Debug\\code\apps\usb_device\usb_key.o
 .bss           0x00304d74        0x0 obj\Debug\\code\common\ASCII_lib.o
 .bss           0x00304d74        0x0 obj\Debug\\code\common\common.o
 .bss           0x00304d74        0x0 obj\Debug\\code\common\dev_manage\dev_ctl.o
 .bss           0x00304d74        0x0 obj\Debug\\code\common\fcvt.o
 .bss           0x00304d74        0x0 obj\Debug\\code\common\file_operate\file_operate.o
 .bss           0x00304d74        0x0 obj\Debug\\code\common\os_api\os_api.o
 .bss           0x00304d74        0x0 obj\Debug\\code\common\os_api\task_manage.o
 .bss           0x00304d74        0x0 obj\Debug\\code\common\printf-stdarg.o
 .bss           0x00304d74        0x8 obj\Debug\\code\common\ui\led7_drv.o
                0x00304d74                b_muteFlag
 .bss           0x00304d7c        0x0 obj\Debug\\code\common\ui\led_ui_api.o
 .bss           0x00304d7c        0x0 obj\Debug\\code\common\ui\ui_common.o
 .bss           0x00304d7c        0x0 obj\Debug\\code\common\voice_prompt\voice_prompt.o
 .bss           0x00304d7c        0x0 obj\Debug\\code\cpu\ac46\board\board_bt15_v0.o
 .bss           0x00304d7c        0x0 obj\Debug\\code\cpu\ac46\driver\M62429.o
 .bss           0x00304d7c        0x0 obj\Debug\\code\cpu\ac46\driver\clock.o
 .bss           0x00304d7c        0x0 obj\Debug\\code\cpu\ac46\driver\dac.o
 .bss           0x00304d7c        0x0 obj\Debug\\code\cpu\ac46\driver\encoder.o
 .bss           0x00304d7c        0x0 obj\Debug\\code\cpu\ac46\driver\interrupt_isr.o
 .bss           0x00304d7c       0x10 obj\Debug\\code\cpu\ac46\driver\key.o
 .bss           0x00304d8c        0x4 obj\Debug\\code\cpu\ac46\driver\key_drv_ad.o
 .bss           0x00304d90        0x0 obj\Debug\\code\cpu\ac46\driver\key_drv_io.o
 .bss           0x00304d90        0x0 obj\Debug\\code\cpu\ac46\driver\key_drv_ir.o
 .bss           0x00304d90        0x0 obj\Debug\\code\cpu\ac46\driver\key_drv_tch.o
 .bss           0x00304d90        0x0 obj\Debug\\code\cpu\ac46\driver\key_voice.o
 .bss           0x00304d90        0x0 obj\Debug\\code\cpu\ac46\driver\kok_detect.o
 .bss           0x00304d90       0x24 obj\Debug\\code\cpu\ac46\driver\ladc.o
                0x00304d90                p_ladc
 .bss           0x00304db4        0x4 obj\Debug\\code\cpu\ac46\driver\led.o
 .bss           0x00304db8        0x0 obj\Debug\\code\cpu\ac46\driver\low_power.o
 .bss           0x00304db8        0x0 obj\Debug\\code\cpu\ac46\driver\pt2313.o
 .bss           0x00304db8        0x0 obj\Debug\\code\cpu\ac46\driver\sys_detect.o
 .bss           0x00304db8        0x8 obj\Debug\\code\cpu\ac46\driver\timer.o
                0x00304db8                dwAuxFmBtRecordTimeCnt
 .bss           0x00304dc0        0x0 obj\Debug\\code\cpu\ac46\driver\uart.o
 .bss           0x00304dc0        0x0 code\libs\dec_lib_ac46.a(music_api.o)
 .bss           0x00304dc0        0x0 code\libs\dec_lib_ac46.a(sup_dec_op.o)
 .bss           0x00304dc0        0xc code\libs\dec_lib_ac46.a(decoder_phy.o)
                0x00304dc0                fun_id3
 .bss           0x00304dcc        0x0 code\libs\cbuf.a(circular_buf.o)
 .bss           0x00304dcc        0x0 code\libs\lib_dac.a(dac_init.o)
 .bss           0x00304dcc        0xc code\libs\lib_dac.a(dac_channel.o)
                0x00304dcc                digit_energy_value
 .bss           0x00304dd8        0x0 code\libs\sys_cfg_ac46.a(pll.o)
 .bss           0x00304dd8        0x0 code\libs\sys_cfg_ac46.a(reg.o)
 .bss           0x00304dd8        0x0 code\libs\sys_cfg_ac46.a(startup.o)
 .bss           0x00304dd8       0x1c code\libs\sys_cfg_ac46.a(system_cfg_file.o)
 .bss           0x00304df4        0x4 code\libs\sys_cfg_ac46.a(hwi.o)
                0x00304df4                hwi_installed
 .bss           0x00304df8        0x0 code\libs\sys_cfg_ac46.a(irq.o)
 .bss           0x00304df8        0x8 code\libs\sys_cfg_ac46.a(system_cfg.o)
 .bss           0x00304e00        0x0 code\libs\aec_ac46.a(aec.o)
 .bss           0x00304e00        0x0 code\libs\aec_ac46.a(aec_tst_sd.o)
 .bss           0x00304e00        0x0 code\libs\aec_ac46.a(cdn3_btsyn.o)
 .bss           0x00304e00        0x0 code\libs\aec_ac46.a(AGC.o)
 .bss           0x00304e00        0x0 code\libs\libSpeech_dection.a(Speech_detection.o)
 .bss           0x00304e00        0x0 code\libs\libDAGC.a(DAGC.o)
 .bss           0x00304e00        0x0 code\libs\libDAGC.a(AGC.o)
 .bss           0x00304e00        0x0 code\libs\libsbcdeocode.a(new_sbcdec.o)
 .bss           0x00304e00        0x0 code\libs\lib_mp3_decode.a(mtst_mp3.o)
 .bss           0x00304e00        0x0 code\libs\lib_mp3_decode.a(ID3tag_skip.o)
 .bss           0x00304e00        0x0 code\libs\lib_mp3_decode.a(mpegaudio.o)
 .bss           0x00304e00        0x0 code\libs\lib_mp3_decode.a(layer3.o)
 .bss           0x00304e00        0x0 code\libs\lib_mp3_decode.a(mpeg_ctab.o)
 .bss           0x00304e00        0x0 code\libs\lib_mp3_decode.a(mpeg_synth.o)
 .bss           0x00304e00        0x0 code\libs\lib_mp3_decode.a(huffman.o)
 .bss           0x00304e00        0x0 code\libs\lib_mp3_decode.a(layer12.o)
 .bss           0x00304e00        0x0 code\libs\lib_wav_decode.a(testwav.o)
 .bss           0x00304e00        0x0 code\libs\lib_wav_decode.a(wavdec_api.o)
 .bss           0x00304e00        0x0 code\libs\lib_wav_decode.a(ima_adpcm.o)
 .bss           0x00304e00        0x0 code\libs\lib_wav_decode.a(msadpcmdec.o)
 .bss           0x00304e00        0x0 code\libs\ef_api_ac46.a(audio_ef.o)
 .bss           0x00304e00        0x0 code\libs\lib_audio_effect.a(effect_api.o)
 .bss           0x00304e00        0x0 code\libs\lib_audio_effect.a(eq.o)
 .bss           0x00304e00        0x0 code\libs\lib_audio_effect.a(resample.o)
 .bss           0x00304e00        0x0 code\libs\lib_audio_effect.a(resample_8.o)
 .bss           0x00304e00        0x0 code\libs\lib_audio_effect.a(resample_qk.o)
 .bss           0x00304e00        0x0 code\libs\lib_audio_effect.a(vol.o)
 .bss           0x00304e00        0x0 code\libs\lib_wma_decode.a(mtst_wma.o)
 .bss           0x00304e00        0x0 code\libs\lib_wma_decode.a(wma.o)
 .bss           0x00304e00        0x0 code\libs\lib_wma_decode.a(wma_huff.o)
 .bss           0x00304e00        0x0 code\libs\lib_wma_decode.a(wma_tab.o)
 .bss           0x00304e00        0x0 code\libs\lib_wma_decode.a(wmadec.o)
 .bss           0x00304e00        0x0 code\libs\lib_wma_decode.a(asf.o)
 .bss           0x00304e00        0x0 code\libs\lib_wma_decode.a(aviobuf.o)
 .bss           0x00304e00        0x0 code\libs\lib_wma_decode.a(bitstream.o)
 .bss           0x00304e00        0x0 code\libs\lib_wma_decode.a(mdct.o)
 .bss           0x00304e00        0x0 code\libs\lib_wma_decode.a(dv_wma.o)
 .bss           0x00304e00       0x18 code\libs\dev_mg_lib.a(drv_manage.o)
 .bss           0x00304e18        0x0 code\libs\dev_mg_lib.a(mango_dev_cache.o)
 .bss           0x00304e18        0x0 code\libs\dev_mg_lib.a(mbr.o)
 .bss           0x00304e18        0x0 code\libs\dev_mg_lib.a(dev_updata_mode.o)
 .bss           0x00304e18        0x0 code\libs\dev_mg_lib.a(dev_operate.o)
 .bss           0x00304e18        0x0 code\libs\dev_mg_lib.a(fat_io.o)
 .bss           0x00304e18        0x0 code\libs\dev_mg_lib.a(fs_io.o)
 .bss           0x00304e18        0x0 code\libs\dev_mg_lib.a(logic_dev_list.o)
 .bss           0x00304e18        0x0 code\libs\dev_mg_lib.a(syd_io.o)
 .bss           0x00304e18        0x4 code\libs\dev_mg_lib.a(vfs.o)
                0x00304e18                lfn_buf
 .bss           0x00304e1c        0x0 code\libs\libtff.a(ff_api.o)
 .bss           0x00304e1c        0x0 code\libs\libtff.a(tff.o)
 .bss           0x00304e1c       0x34 code\libs\mem_ac46.a(mem_heap.o)
 .bss           0x00304e50        0x0 code\libs\mem_ac46.a(sbrk.o)
 .bss           0x00304e50        0x0 code\libs\mem_ac46.a(vmalloc.o)
 .bss           0x00304e50        0x4 code\libs\mem_ac46.a(pmalloc.o)
 .bss           0x00304e54        0x0 code\libs\sd.a(mango_dev_sd.o)
 .bss           0x00304e54        0x0 code\libs\sd.a(sd_controller_interface.o)
 .bss           0x00304e54        0x0 code\libs\sd.a(sd_global_var.o)
 .bss           0x00304e54        0x0 code\libs\sd.a(sd_host_read.o)
 .bss           0x00304e54        0x0 code\libs\sd.a(sd_host_read_end.o)
 .bss           0x00304e54        0x0 code\libs\sd.a(sd_host_unmount.o)
 .bss           0x00304e54        0x0 code\libs\sd.a(sd_host_write.o)
 .bss           0x00304e54        0x0 code\libs\sd.a(sd_host_write_end.o)
 .bss           0x00304e54        0x0 code\libs\sd.a(sdmmc_init.o)
 .bss           0x00304e54        0x0 code\libs\sd.a(suspend_sdmmc.o)
 .bss           0x00304e54        0x0 code\libs\sd.a(sd_host_send_csd.o)
 .bss           0x00304e54        0x0 code\libs\sd.a(sd_host_stop_trans.o)
 .bss           0x00304e54        0x0 code\libs\sd.a(sd_host_hw.o)
 .bss           0x00304e54        0x0 code\libs\sd.a(sd_wait_idle.o)
 .bss           0x00304e54        0x0 code\libs\sd.a(sdmmc_det.o)
 .bss           0x00304e54        0x0 code\libs\sd.a(sd_host_reg.o)
 .bss           0x00304e54        0x0 code\libs\sd.a(sd_read_start.o)
 .bss           0x00304e54        0x0 code\libs\sd.a(sd_send_command.o)
 .bss           0x00304e54        0x0 code\libs\sd.a(sd_write_start.o)
 .bss           0x00304e54        0x0 code\libs\sd.a(sd_host_status.o)
 .bss           0x00304e54        0x0 code\libs\sd.a(sd_host_init.o)
 .bss           0x00304e54        0x0 code\libs\sd.a(sd_host_mount.o)
 .bss           0x00304e54        0x0 code\libs\sd.a(sd_host_timeout.o)
 .bss           0x00304e54        0x0 code\libs\sd.a(sd_init.o)
 .bss           0x00304e54        0x0 code\libs\sd.a(sdmmc_host_set_bus_width.o)
 .bss           0x00304e54        0x0 code\libs\sd.a(sdmmc_host_set_hispeed.o)
 .bss           0x00304e54        0x0 code\libs\sd.a(mmc_host_send_rca.o)
 .bss           0x00304e54        0x0 code\libs\sd.a(mmc_host_set_bus_width.o)
 .bss           0x00304e54        0x0 code\libs\sd.a(mmc_host_set_hispeed.o)
 .bss           0x00304e54        0x0 code\libs\sd.a(sd_host_all_send_cid.o)
 .bss           0x00304e54        0x0 code\libs\sd.a(sd_host_reset.o)
 .bss           0x00304e54        0x0 code\libs\sd.a(sd_host_sd_status.o)
 .bss           0x00304e54        0x0 code\libs\sd.a(sd_host_send_if_cond.o)
 .bss           0x00304e54        0x0 code\libs\sd.a(sd_host_send_rca.o)
 .bss           0x00304e54        0x0 code\libs\sd.a(sd_host_set_bus_width.o)
 .bss           0x00304e54        0x0 code\libs\sd.a(sd_host_set_hispeed.o)
 .bss           0x00304e54        0x0 code\libs\sd.a(sd_host_switch_func.o)
 .bss           0x00304e54        0x0 code\libs\sd.a(sd_select_card.o)
 .bss           0x00304e54        0x0 code\libs\sd.a(sd_send_scr.o)
 .bss           0x00304e54        0x0 code\libs\sd.a(sd_chk_ctl.o)
 .bss           0x00304e54        0x0 code\libs\sd.a(sd_host_identification.o)
 .bss           0x00304e54        0x0 code\libs\sd.a(mmc_host_send_op_cond.o)
 .bss           0x00304e54        0x0 code\libs\sd.a(sd_host_app_cmd.o)
 .bss           0x00304e54        0x0 code\libs\sd.a(sd_host_send_op_cond.o)
 .bss           0x00304e54        0x4 code\libs\usb.a(mango_dev_usb_slave.o)
 .bss           0x00304e58        0x0 code\libs\usb.a(usb_device_mount.o)
 .bss           0x00304e58        0x0 code\libs\usb.a(usb_device_unmount.o)
 .bss           0x00304e58        0x0 code\libs\usb.a(usb_slave_mic_adc.o)
 .bss           0x00304e58        0x0 code\libs\usb.a(usb_slave_spk_dac.o)
 .bss           0x00304e58        0x0 code\libs\usb.a(usbs_ctl_isr.o)
 .bss           0x00304e58        0x0 code\libs\usb.a(usb_class_setting_libs.o)
 .bss           0x00304e58        0x0 code\libs\usb.a(usb_device_io.o)
 .bss           0x00304e58        0x0 code\libs\usb.a(usb_hid_key.o)
 .bss           0x00304e58        0x0 code\libs\usb.a(usb_slave_ctl.o)
 .bss           0x00304e58        0x0 code\libs\usb.a(usb_slave_scsi_libs.o)
 .bss           0x00304e58        0x0 code\libs\usb.a(usb_slave_sd.o)
 .bss           0x00304e58        0x0 code\libs\usb.a(usb_device_status.o)
 .bss           0x00304e58        0x0 code\libs\usb.a(usb_slave_online.o)
 .bss           0x00304e58        0x0 code\libs\usb.a(mango_dev_usb.o)
 .bss           0x00304e58        0x0 code\libs\usb.a(usb_global_var.o)
 .bss           0x00304e58        0x0 code\libs\usb.a(usb_host_mount.o)
 .bss           0x00304e58        0x0 code\libs\usb.a(usb_host_read.o)
 .bss           0x00304e58        0x0 code\libs\usb.a(usb_host_unmount.o)
 .bss           0x00304e58        0x0 code\libs\usb.a(usb_host_write.o)
 .bss           0x00304e58        0x0 code\libs\usb.a(usb_read_remain.o)
 .bss           0x00304e58        0x0 code\libs\usb.a(usb_suspend.o)
 .bss           0x00304e58        0x0 code\libs\usb.a(USB_Host_dev_enum_libs.o)
 .bss           0x00304e58        0x0 code\libs\usb.a(usb_control_transfers.o)
 .bss           0x00304e58        0x0 code\libs\usb.a(usb_ctlXfer.o)
 .bss           0x00304e58        0x0 code\libs\usb.a(usb_descriptor_parser.o)
 .bss           0x00304e58        0x0 code\libs\usb.a(usb_bulk_only_receive.o)
 .bss           0x00304e58        0x0 code\libs\usb.a(usb_bulk_only_transfer.o)
 .bss           0x00304e58        0x0 code\libs\usb.a(usb_ufi_read10.o)
 .bss           0x00304e58        0x0 code\libs\usb.a(usb_ufi_write10.o)
 .bss           0x00304e58        0x0 code\libs\usb.a(usbh_msd_enum.o)
 .bss           0x00304e58        0x0 code\libs\usb.a(usbh_msd_parser.o)
 .bss           0x00304e58        0x0 code\libs\usb.a(usb_host_reg_libs.o)
 .bss           0x00304e58        0x0 code\libs\usb.a(usb_reg.o)
 .bss           0x00304e58        0x0 code\libs\usb.a(usb_host_status.o)
 .bss           0x00304e58        0x0 code\libs\usb.a(usb_online.o)
 .bss           0x00304e58        0x0 code\libs\usb.a(Descriptor.o)
 .bss           0x00304e58        0x0 code\libs\usb.a(set_descriptor_libs.o)
 .bss           0x00304e58        0x0 code\libs\usb.a(usb_host_timeout.o)
 .bss           0x00304e58        0x0 code\libs\usb.a(get_max_LUN.o)
 .bss           0x00304e58        0x0 code\libs\usb.a(usb_host_clear_feature.o)
 .bss           0x00304e58        0x0 code\libs\usb.a(CBW_init.o)
 .bss           0x00304e58        0x0 code\libs\usb.a(usb_bulk_only_send.o)
 .bss           0x00304e58        0x0 code\libs\usb.a(usb_host_scsi_cmd_libs.o)
 .bss           0x00304e58        0x0 code\libs\librtos_bt15.a(os_core.o)
 .bss           0x00304e58        0x0 code\libs\librtos_bt15.a(os_mutex.o)
 .bss           0x00304e58        0x0 code\libs\librtos_bt15.a(os_sem.o)
 .bss           0x00304e58        0x0 code\libs\librtos_bt15.a(os_task.o)
 .bss           0x00304e58        0x0 code\libs\librtos_bt15.a(os_time.o)
 .bss           0x00304e58        0x0 code\libs\librtos_bt15.a(os_cpu.o)
 .bss           0x00304e58        0x0 code\libs\librtos_bt15.a(os_cpu_c.o)
 .bss           0x00304e58       0x38 code\libs\lib_cache_vm_bt15.a(vm.o)
                0x00304e58                vm_desc_head
                0x00304e5c                vm_desc_tail
 .bss           0x00304e90        0x0 code\libs\sydf_ac46.a(syd_file.o)
 .bss           0x00304e90        0x0 code\libs\lib_fm_resample.a(FM_resample.o)
 .bss           0x00304e90        0x4 code\libs\lib_fm_driver.a(fm_digital.o)
 .bss           0x00304e94        0x0 code\libs\lib_fm_driver.a(fmrx_driver.o)
 .bss           0x00304e94        0x0 code\libs\lib_fm_driver.a(fm_analog.o)
 .bss           0x00304e94        0x0 code\libs\lib_fm_driver.a(fm_coef.o)
 .bss           0x00304e94        0x0 code\libs\libBtCalling.a(BT_Calling.o)
 .bss           0x00304e94        0x0 code\libs\libBtCalling.a(aecmain.o)
 .bss           0x00304e94        0x8 code\libs\libBtCalling.a(ns_core.o)
                0x00304e94                min_lrt
                0x00304e98                max_lrt
 .bss           0x00304e9c        0x0 code\libs\libBtCalling.a(aec_core.o)
 .bss           0x00304e9c        0x0 code\libs\libBtCalling.a(aec_rdft.o)
 .bss           0x00304e9c        0x0 code\libs\lib_usb_syn.a(usb_syn.o)
 .bss           0x00304e9c        0xc code\libs\libbt_bt15.a(a2dp.o)
                0x00304e9c                a2dp_send_sbc_handle
 .bss           0x00304ea8       0x14 code\libs\libbt_bt15.a(avctp.o)
 .bss           0x00304ebc       0xf8 code\libs\libbt_bt15.a(avctp_user.o)
 .bss           0x00304fb4        0x4 code\libs\libbt_bt15.a(avdtp.o)
 .bss           0x00304fb8        0x0 code\libs\libbt_bt15.a(a2dp_media_file.o)
 .bss           0x00304fb8       0x10 code\libs\libbt_bt15.a(h4_transport.o)
 .bss           0x00304fc8        0x0 code\libs\libbt_bt15.a(nfc_blueteeth.o)
 .bss           0x00304fc8        0x4 code\libs\libbt_bt15.a(hci.o)
 .bss           0x00304fcc        0x0 code\libs\libbt_bt15.a(hci_cmds.o)
 .bss           0x00304fcc        0x0 code\libs\libbt_bt15.a(hci_dump.o)
 .bss           0x00304fcc        0x8 code\libs\libbt_bt15.a(hfp_profile.o)
                0x00304fcc                hfp_get_battery_value
 .bss           0x00304fd4       0x3c code\libs\libbt_bt15.a(hid.o)
                0x00304fd4                hid_key_pass_check_handle
 .bss           0x00305010        0x4 code\libs\libbt_bt15.a(l2cap.o)
 .bss           0x00305014        0x0 code\libs\libbt_bt15.a(l2cap_signaling.o)
 .bss           0x00305014        0x0 code\libs\libbt_bt15.a(linked_list.o)
 .bss           0x00305014        0x4 code\libs\libbt_bt15.a(rfcomm.o)
 .bss           0x00305018        0x0 code\libs\libbt_bt15.a(sdp.o)
 .bss           0x00305018        0x8 code\libs\libbt_bt15.a(sdp_master.o)
                0x00305018                sdp_get_test_link_type
 .bss           0x00305020        0x0 code\libs\libbt_bt15.a(sdp_util.o)
 .bss           0x00305020        0x4 code\libs\libbt_bt15.a(spp_profile.o)
                0x00305020                spp_data_deal_handle
 .bss           0x00305024       0x14 code\libs\libbt_bt15.a(utils.o)
 .bss           0x00305038        0x8 code\libs\libbt_bt15.a(bt_configs.o)
                0x00305038                bt_pairing_handle
 .bss           0x00305040        0x0 code\libs\libbt_bt15.a(btstack.o)
 .bss           0x00305040      0x210 code\libs\libbt_bt15.a(phone_talking.o)
                0x00305040                bt_data_handle
                0x00305044                pcm_send_data_handle
                0x00305048                get_stop_send_pcm_handle
 .bss           0x00305250        0x4 code\libs\libbt_bt15.a(resource_manage.o)
 .bss           0x00305254        0x0 code\libs\libbt_bt15.a(run_loop.o)
 .bss           0x00305254       0x20 code\libs\libbt_bt15.a(spp_accel.o)
                0x00305254                call_vol_change_handle
                0x00305258                read_remote_name_handle
                0x0030525c                supervision_timeout_handle
                0x00305260                discon_complete_handle
                0x00305264                linkkey_missing_handle
                0x00305268                updata_conn_for_tester_handle
                0x0030526c                user_operation_control_handle
                0x00305270                bt_stack_init_handle
 .bss           0x00305274        0x4 code\libs\libbt_bt15.a(analog.o)
                0x00305274                hook_bt_trim_backup_handle
 .bss           0x00305278        0x8 code\libs\libbt_bt15.a(device_manager.o)
                0x00305278                hook_bt_trim_check_crc_handle
 .bss           0x00305280        0x0 code\libs\libbt_bt15.a(hci_bottom.o)
 .bss           0x00305280       0xa4 code\libs\libbt_bt15.a(inquiry_scan.o)
                0x00305280                page_timeout_param
                0x00305284                get_eir_data_handle
 .bss           0x00305324        0x0 code\libs\libbt_bt15.a(lbuf.o)
 .bss           0x00305324        0x4 code\libs\libbt_bt15.a(link_controller.o)
                0x00305324                flow_ctrl
 .bss           0x00305328      0x374 code\libs\libbt_bt15.a(lmp.o)
                0x00305328                disp_test_offset_handle
 .bss           0x0030569c        0x0 code\libs\libbt_bt15.a(lmp_custom.o)
 .bss           0x0030569c       0x10 code\libs\libbt_bt15.a(lmp_main.o)
 .bss           0x003056ac        0x0 code\libs\libbt_bt15.a(mdm.o)
 .bss           0x003056ac        0x0 code\libs\libbt_bt15.a(radio.o)
 .bss           0x003056ac       0x94 code\libs\libbt_bt15.a(role_switch_page.o)
 .bss           0x00305740        0x0 code\libs\libbt_bt15.a(sync_word.o)
 .bss           0x00305740        0x0 code\libs\libbt_bt15.a(test_dut.o)
 .bss           0x00305740        0x8 code\libs\libbt_bt15.a(test_master.o)
                0x00305740                disp_value_offset_handle
                0x00305744                buzzer_open_handle
 .bss           0x00305748        0x0 code\libs\libbt_bt15.a(vsprintf.o)
 .bss           0x00305748        0x0 code\libs\libbt_bt15.a(apple_MA_L.o)
 .bss           0x00305748        0x0 code\libs\libbt_bt15.a(hciattach_bt.o)
 .bss           0x00305748        0x4 code\libs\libbt_bt15.a(btstack_memory.o)
 .bss           0x0030574c        0x4 code\libs\libbt_bt15.a(database_file.o)
 .bss           0x00305750       0x2c code\libs\libbt_bt15.a(hfp_ag_profile.o)
                0x00305750                receive_hfp_hf_cmd_handle
 .bss           0x0030577c        0x0 code\libs\libbt_bt15.a(memory_pool.o)
 .bss           0x0030577c        0x4 code\libs\libbt_bt15.a(remote_device_db_memory.o)
 .bss           0x00305780      0x110 code\libs\libbt_bt15.a(Bluetooth_Authentication.o)
 .bss           0x00305890        0x0 code\libs\libbt_bt15.a(Crypto_hash.o)
 .bss           0x00305890        0x0 code\libs\libbt_bt15.a(authencation.o)
 .bss           0x00305890        0x0 code\libs\libbt_bt15.a(bigint.o)
 .bss           0x00305890        0x0 code\libs\libbt_bt15.a(ecdh.o)
 .bss           0x00305890        0x0 code\libs\libbt_bt15.a(hmac.o)
 .bss           0x00305890        0x0 code\libs\libbt_bt15.a(prbs9_table.o)
 .bss           0x00305890        0x0 code\libs\libbt_bt15.a(sha256.o)
 .bss           0x00305890        0x0 code\libs\libbt_bt15.a(BINT_MUL_CORE.o)
 .bss           0x00305890        0x0 code\libs\libbt_bt15.a(endian.o)
 .bss           0x00305890        0x0 code\libs\lib_btrepair.a(BT15_repair.o)
 .bss           0x00305890        0x0 code\libs\lib_aac_decode.a(aac_main.o)
 .bss           0x00305890        0x0 code\libs\lib_aac_decode.a(common.o)
 .bss           0x00305890        0x0 code\libs\lib_aac_decode.a(decoder.o)
 .bss           0x00305890        0x0 code\libs\lib_aac_decode.a(filtbank.o)
 .bss           0x00305890        0x0 code\libs\lib_aac_decode.a(mdct.o)
 .bss           0x00305890        0x0 code\libs\lib_aac_decode.a(output.o)
 .bss           0x00305890        0x0 code\libs\lib_aac_decode.a(syntax.o)
 .bss           0x00305890        0x0 code\libs\lib_aac_decode.a(bits.o)
 .bss           0x00305890        0x0 code\libs\lib_aac_decode.a(cfft.o)
 .bss           0x00305890        0x0 code\libs\lib_aac_decode.a(huffman.o)
 .bss           0x00305890        0x0 code\libs\lib_aac_decode.a(pulse.o)
 .bss           0x00305890        0x0 code\libs\lib_aac_decode.a(specrec.o)
 .bss           0x00305890        0x0 code\libs\lib_aac_decode.a(tns.o)
 .bss           0x00305890        0x0 code\libs\lib_aac_decode.a(is.o)
 .bss           0x00305890        0x0 code\libs\lib_aac_decode.a(ms.o)
 .bss           0x00305890        0x0 code\libs\libBt_a2dp_sync.a(bt_a2dp_sync.o)
 .bss           0x00305890        0x0 code\libs\libBt_a2dp_sync.a(syn_ps.o)
 .bss           0x00305890        0x0 code\libs\clk_ac46.a(clock_api.o)
 .bss           0x00305890        0x0 code\libs\clk_ac46.a(clock_moudle.o)
 .bss           0x00305890       0x40 code\libs\clk_ac46.a(clock_app.o)
 .bss           0x003058d0       0x20 code\libs\clk_ac46.a(pll_moudle.o)
 .bss           0x003058f0        0x0 code\libs\lib_ape_decode.a(mtst_ape.o)
 .bss           0x003058f0        0x0 code\libs\lib_ape_decode.a(apedec.o)
 .bss           0x003058f0        0x0 code\libs\lib_ape_decode.a(dv_ape.o)
 .bss           0x003058f0        0x4 code\libs\lib_flac_decode.a(mtst_flac.o)
 .bss           0x003058f4        0x0 code\libs\lib_flac_decode.a(flacdec.o)
 .bss           0x003058f4        0x0 code\libs\lib_encode.a(encode.o)
 .bss           0x003058f4        0x0 code\libs\lib_encode.a(dev_write_api.o)
 .bss           0x003058f4        0x0 code\libs\lib_adpcm_encode.a(en_adpcm_test.o)
 .bss           0x003058f4        0x0 code\libs\lib_adpcm_encode.a(en_adpcm.o)
 .bss           0x003058f4        0x0 code\libs\lib_mp2_encode.a(mp2_test.o)
 .bss           0x003058f4        0x0 code\libs\lib_mp2_encode.a(mp2dsp.o)
 .bss           0x003058f4        0x0 code\libs\lib_mp2_encode.a(encodemp2.o)
 .bss           0x003058f4        0x0 C:\JL\dv10\lib\libc.a(lib_a-memcmp.o)
 .bss           0x003058f4        0x0 C:\JL\dv10\lib\libc.a(lib_a-memcpy.o)
 .bss           0x003058f4        0x0 C:\JL\dv10\lib\libc.a(lib_a-memmove.o)
 .bss           0x003058f4        0x0 C:\JL\dv10\lib\libc.a(lib_a-memset.o)
 .bss           0x003058f4        0x0 C:\JL\dv10\lib\libc.a(lib_a-rand.o)
 .bss           0x003058f4        0x0 C:\JL\dv10\lib\libc.a(lib_a-strcmp.o)
 .bss           0x003058f4        0x0 C:\JL\dv10\lib\libc.a(lib_a-strcpy.o)
 .bss           0x003058f4        0x0 C:\JL\dv10\lib\libc.a(lib_a-strlen.o)
 .bss           0x003058f4        0x0 C:\JL\dv10\lib\libc.a(lib_a-strstr.o)
 .bss           0x003058f4        0x0 C:\JL\dv10\lib\libc.a(lib_a-impure.o)
 .bss           0x003058f4        0x0 C:\JL\dv10\lib\libc.a(lib_a-memchr.o)
 .bss           0x003058f4        0x0 C:\JL\dv10\lib\libc.a(lib_a-strchr.o)
 .bss           0x003058f4        0x0 C:\JL\dv10\lib\libgcc.a(_umodsi3.o)
 .bss           0x003058f4        0x0 C:\JL\dv10\lib\libgcc.a(_modsi3.o)
 .bss           0x003058f4        0x0 C:\JL\dv10\lib\libgcc.a(_muldi3.o)
 .bss           0x003058f4        0x0 C:\JL\dv10\lib\libgcc.a(_umulsi3_highpart.o)
 .bss           0x003058f4        0x0 C:\JL\dv10\lib\libgcc.a(_lshrdi3.o)
 .bss           0x003058f4        0x0 C:\JL\dv10\lib\libgcc.a(_ashldi3.o)
 .bss           0x003058f4        0x0 C:\JL\dv10\lib\libgcc.a(_divdi3.o)
 .bss           0x003058f4        0x0 C:\JL\dv10\lib\libgcc.a(_udivdi3.o)
 .bss           0x003058f4        0x0 C:\JL\dv10\lib\libgcc.a(_umoddi3.o)
 .bss           0x003058f4        0x0 C:\JL\dv10\lib\libgcc.a(divsf3.o)
 .bss           0x003058f4        0x0 C:\JL\dv10\lib\libgcc.a(subsf3.o)
 .bss           0x003058f4        0x0 C:\JL\dv10\lib\libgcc.a(fixsfsi.o)
 .bss           0x003058f4        0x0 C:\JL\dv10\lib\libgcc.a(floatsisf.o)
 .bss           0x003058f4        0x0 C:\JL\dv10\lib\libgcc.a(_clz.o)
 .bss           0x003058f4        0x0 C:\JL\dv10\lib\libgcc.a(_clzsi2.o)
 *(.baseband_base)
 .baseband_base
                0x003058f4      0x818 code\libs\libbt_bt15.a(radio.o)
                0x003058f4                radio_base
 *(.baseband)
 .baseband      0x0030610c     0x3000 code\libs\libbt_bt15.a(device_manager.o)
 .baseband      0x0030910c      0x400 code\libs\libbt_bt15.a(hci_bottom.o)
 .baseband      0x0030950c      0x400 code\libs\libbt_bt15.a(radio.o)
                0x0030950c                rxsco_addr0
                0x0030960c                rxsco_addr1
                0x0030970c                txsco_addr0
                0x0030980c                txsco_addr1
 COMMON         0x0030990c       0x14 obj\Debug\\code\apps\bt\aec\aec_api.o
                0x0030990c                btcfg_aec
                0x00309910                sys_info
                0x0030991c                MODE_IN_LINEIN
 COMMON         0x00309920       0x18 obj\Debug\\code\apps\bt\btstack\bt_key_deal.o
                0x00309920                led_show_mode
                0x00309924                auto_connection_counter
                0x00309928                tone_manage_semp
 COMMON         0x00309938        0xe obj\Debug\\code\apps\bt\btstack\fcc_test.o
                0x00309938                writepos
                0x00309939                fcc_uart_buf
 *fill*         0x00309946        0x2 00
 COMMON         0x00309948       0x10 obj\Debug\\code\apps\fm\fm_api.o
                0x00309948                fm_rec_buffer
                0x0030994c                fm_rs_objt
                0x00309950                fm_dac_buf
                0x00309954                fm_dac_cb
 COMMON         0x00309958        0x4 obj\Debug\\code\apps\fm\fm_prompt.o
                0x00309958                fm_prompt_stopped
 COMMON         0x0030995c        0x8 obj\Debug\\code\apps\fm\fm_radio.o
                0x0030995c                fm_mode_var
                0x00309960                fm_info
 COMMON         0x00309964        0x8 obj\Debug\\code\apps\linein\dev_linein.o
                0x00309964                g_aux_var
 COMMON         0x0030996c        0x4 obj\Debug\\code\apps\linein\linein_prompt.o
                0x0030996c                linein_prompt_stopped
 COMMON         0x00309970       0x71 obj\Debug\\code\apps\main\main.o
                0x00309970                g_sys_cfg
                0x003099dc                usb_to_sd_flag
                0x003099e0                workmode
 *fill*         0x003099e1        0x3 00
 COMMON         0x003099e4       0x1c obj\Debug\\code\apps\music\music.o
                0x003099e4                curr_device_using
                0x003099e8                bLedShowDelCnt
                0x003099ec                music_ui
                0x003099fc                lyx_recplay_repeat_one_sw
 COMMON         0x00309a00      0x28a obj\Debug\\code\apps\music\music_info.o
                0x00309a00                music_file_name
                0x00309a88                lfn_music
 *fill*         0x00309c8a        0x2 00
 COMMON         0x00309c8c       0x10 obj\Debug\\code\apps\music\music_prompt.o
                0x00309c8c                music_prompt_flag
                0x00309c90                dec_status
                0x00309c94                music_prompt_stopped
                0x00309c98                prompt_played
 COMMON         0x00309c9c        0x8 obj\Debug\\code\apps\record\record.o
                0x00309c9c                rec_total_number
                0x00309ca0                rec_fname_cnt
 COMMON         0x00309ca4       0x10 obj\Debug\\code\apps\rtc\irtc.o
                0x00309ca4                current_time
                0x00309cac                current_alarm
 COMMON         0x00309cb4        0x4 obj\Debug\\code\apps\rtc\rtc_prompt.o
                0x00309cb4                rtc_prompt_stopped
 COMMON         0x00309cb8       0x1a obj\Debug\\code\common\common.o
                0x00309cb8                sys_mem_sta
                0x00309cd0                delay_cnt
 *fill*         0x00309cd2        0x2 00
 COMMON         0x00309cd4       0x10 obj\Debug\\code\common\dev_manage\dev_ctl.o
                0x00309cd4                cache
                0x00309cd8                sd0
                0x00309cdc                usb
                0x00309ce0                sd1
 COMMON         0x00309ce4       0x10 obj\Debug\\code\common\os_api\task_manage.o
                0x00309ce4                curr_task
                0x00309ce8                last_task_info
 COMMON         0x00309cf4       0x30 obj\Debug\\code\common\ui\led7_drv.o
                0x00309cf4                aux_pause_mark
                0x00309cf8                led7_var
 COMMON         0x00309d24        0x4 obj\Debug\\code\common\ui\led_ui_api.o
                0x00309d24                UI_var
 COMMON         0x00309d28        0x5 obj\Debug\\code\common\ui\ui_common.o
                0x00309d28                bcd_number
 *fill*         0x00309d2d        0x3 00
 COMMON         0x00309d30       0x36 obj\Debug\\code\cpu\ac46\board\board_bt15_v0.o
                0x00309d30                TaskBtStackQ
                0x00309d40                TaskUIQ
                0x00309d50                TaskStartQ
                0x00309d60                jiffies
                0x00309d64                crc_value
 *fill*         0x00309d66        0x2 00
 COMMON         0x00309d68       0x10 obj\Debug\\code\cpu\ac46\driver\clock.o
                0x00309d68                sys_clk_chg_sem
 COMMON         0x00309d78       0x38 obj\Debug\\code\cpu\ac46\driver\dac.o
                0x00309d78                audio_cb
                0x00309d98                dac_read_en
                0x00309d9c                audio_sem
                0x00309dac                dac_energy_value
 COMMON         0x00309db0      0x120 obj\Debug\\code\cpu\ac46\driver\key.o
                0x00309db0                key_type
                0x00309db4                input_number
                0x00309db8                ir_msg_table
                0x00309e1c                keymsg_task_name
                0x00309e20                touch_msg_table
                0x00309e48                io_msg_table
                0x00309e70                ad_msg_table
 COMMON         0x00309ed0        0x8 obj\Debug\\code\cpu\ac46\driver\key_drv_ad.o
                0x00309ed0                adc_value
 COMMON         0x00309ed8        0xa obj\Debug\\code\cpu\ac46\driver\key_drv_ir.o
                0x00309ed8                timer1_pad
                0x00309eda                ir_code
 *fill*         0x00309ee2        0x2 00
 COMMON         0x00309ee4       0x14 obj\Debug\\code\cpu\ac46\driver\key_voice.o
                0x00309ee4                key_voice
 COMMON         0x00309ef8      0x200 obj\Debug\\code\cpu\ac46\driver\ladc.o
                0x00309ef8                ladc_buf
 COMMON         0x0030a0f8        0x3 obj\Debug\\code\cpu\ac46\driver\led.o
                0x0030a0f8                show_led_mode
                0x0030a0f9                show_led_num
                0x0030a0fa                show_led_time
 *fill*         0x0030a0fb        0x1 00
 COMMON         0x0030a0fc       0x10 obj\Debug\\code\cpu\ac46\driver\sys_detect.o
                0x0030a0fc                power_sem
 COMMON         0x0030a10c        0x9 obj\Debug\\code\cpu\ac46\driver\timer.o
                0x0030a10c                g_rand_seed
                0x0030a110                g_2ms_seed
                0x0030a114                sys_halfsec
 *fill*         0x0030a115        0x3 00
 COMMON         0x0030a118       0x1c obj\Debug\\code\cpu\ac46\driver\uart.o
                0x0030a118                uart0_tx_ok
                0x0030a11c                uart_mutex
                0x0030a12c                uart0_rx_count
                0x0030a130                g_debug
 COMMON         0x0030a134        0xc code\libs\dec_lib_ac46.a(decoder_phy.o)
                0x0030a134                id3_head
                0x0030a13c                decoder_time
 COMMON         0x0030a140        0x4 code\libs\lib_dac.a(dac_init.o)
                0x0030a140                dac_buf_add
 COMMON         0x0030a144       0x34 code\libs\lib_dac.a(dac_channel.o)
                0x0030a144                dac_var
                0x0030a160                dac_amux_one_in_two_on
                0x0030a164                dac_digt_ctl
                0x0030a16c                dac_amux_two_in_one_off
                0x0030a170                dac_amux_one_in_two_off
                0x0030a174                dac_amux_two_in_one_on
 COMMON         0x0030a178        0x4 code\libs\sys_cfg_ac46.a(hwi.o)
                0x0030a178                install_isr_flag
 COMMON         0x0030a17c       0x1c code\libs\aec_ac46.a(aec.o)
                0x0030a17c                aec_con
                0x0030a180                spd_buf
                0x0030a184                speeker_dagc_buf
                0x0030a188                phone_talking_flag
                0x0030a18c                aec
                0x0030a190                btc_buf
                0x0030a194                aec_buf
 COMMON         0x0030a198        0x8 code\libs\dev_mg_lib.a(mango_dev_cache.o)
                0x0030a198                cache_online_status
                0x0030a19c                cache_base
 COMMON         0x0030a1a0       0x18 code\libs\dev_mg_lib.a(logic_dev_list.o)
                0x0030a1a0                new_lg_dev_let
                0x0030a1a4                lg_dev_list_head
                0x0030a1a8                lg_dev_mutex
 COMMON         0x0030a1b8        0x8 code\libs\libtff.a(ff_api.o)
                0x0030a1b8                total_folder
                0x0030a1bc                ext_table
 COMMON         0x0030a1c0        0x4 code\libs\mem_ac46.a(sbrk.o)
                0x0030a1c0                mem_fat
 COMMON         0x0030a1c4       0xff code\libs\mem_ac46.a(vmalloc.o)
                0x0030a1c4                vmm_fat
 *fill*         0x0030a2c3        0x1 00
 COMMON         0x0030a2c4       0x26 code\libs\mem_ac46.a(pmalloc.o)
                0x0030a2c4                pm_mem_curren_pos_begin
                0x0030a2c8                pm_usd_map
                0x0030a2e8                pm_mem_curren_pos
 *fill*         0x0030a2ea        0x2 00
 COMMON         0x0030a2ec       0xc5 code\libs\librtos_bt15.a(os_core.o)
                0x0030a2ec                OSTCBCur
                0x0030a2f0                idle_tcb
                0x0030a318                OSTCBHighRdy
                0x0030a31c                OSRdyTbl
                0x0030a320                OSIdleCtr
                0x0030a324                OSRunning
                0x0030a328                OSTCBPrioTbl
                0x0030a3a8                OSLockNesting
                0x0030a3ac                OSTime
                0x0030a3b0                OSIntNesting
 *fill*         0x0030a3b1        0x3 00
 COMMON         0x0030a3b4        0x4 code\libs\sydf_ac46.a(syd_file.o)
                0x0030a3b4                sydf_head_base
 COMMON         0x0030a3b8       0x1c code\libs\lib_fm_driver.a(fmrx_driver.o)
                0x0030a3b8                cur_fre_rssi
                0x0030a3bc                fmrx_ctlbuf
                0x0030a3c0                fmrx_tmr
                0x0030a3c4                lofc_res32
                0x0030a3c8                fm_set
 COMMON         0x0030a3d4       0x20 code\libs\lib_fm_driver.a(fm_analog.o)
                0x0030a3d4                fm_pll_cap
 COMMON         0x0030a3f4       0x15 code\libs\libbt_bt15.a(a2dp.o)
                0x0030a3f4                timer_send_sbc
                0x0030a404                sbc_decode_simplerate
                0x0030a408                a2dp_cbuf_busy
 *fill*         0x0030a409        0x3 00
 COMMON         0x0030a40c        0x4 code\libs\libbt_bt15.a(a2dp_media_file.o)
                0x0030a40c                a2dp_music_simplerate
 COMMON         0x0030a410       0xbc code\libs\libbt_bt15.a(nfc_blueteeth.o)
                0x0030a410                nfc_buff
                0x0030a4b8                NfcBT
 COMMON         0x0030a4cc        0x1 code\libs\libbt_bt15.a(hci.o)
                0x0030a4cc                bt15_own_remote_test_flag
 *fill*         0x0030a4cd        0x3 00
 COMMON         0x0030a4d0        0x4 code\libs\libbt_bt15.a(sdp.o)
                0x0030a4d0                sdp_stack
 COMMON         0x0030a4d4      0x39c code\libs\libbt_bt15.a(sdp_util.o)
                0x0030a4d4                a2dp_service_record_item
                0x0030a4e8                hfp_service_record_item
                0x0030a4fc                hid_service_buffer
                0x0030a68c                hid_service_record_item
                0x0030a6a0                avctp_service_buffer
                0x0030a720                a2dp_source_service_record_item
                0x0030a734                avctp_service_record_item
                0x0030a748                pnp_service_record_item
                0x0030a75c                hfp_ag_service_record_item
                0x0030a770                a2dp_service_buffer
                0x0030a7f0                hfp_service_buffer
 COMMON         0x0030a870        0x8 code\libs\libbt_bt15.a(spp_profile.o)
                0x0030a870                spp_handl
 COMMON         0x0030a878        0x8 code\libs\libbt_bt15.a(bt_configs.o)
                0x0030a878                bt_trim
 COMMON         0x0030a880        0x8 code\libs\libbt_bt15.a(spp_accel.o)
                0x0030a880                spp_ctrl
                0x0030a884                btstack
 COMMON         0x0030a888        0x8 code\libs\libbt_bt15.a(analog.o)
                0x0030a888                bt_pll_cap0
                0x0030a889                agc_set_v
                0x0030a88a                bt_bp_rw
                0x0030a88b                bt_pll_cap1
                0x0030a88c                pll_hen
                0x0030a88d                bt_pll_cap2
                0x0030a88e                pwr_set
                0x0030a88f                bt_pll_para
 COMMON         0x0030a890       0x90 code\libs\libbt_bt15.a(device_manager.o)
                0x0030a890                g_local
 COMMON         0x0030a920       0x14 code\libs\libbt_bt15.a(hci_bottom.o)
                0x0030a920                ghci_handl
 COMMON         0x0030a934       0x40 code\libs\libbt_bt15.a(link_controller.o)
                0x0030a934                glink_handl
 COMMON         0x0030a974       0x11 code\libs\libbt_bt15.a(lmp.o)
                0x0030a974                encryption_key_size
                0x0030a975                in_rand_random_num
 COMMON         0x0030a985        0x1 code\libs\libbt_bt15.a(mdm.o)
                0x0030a985                check_3m_cnt
 *fill*         0x0030a986        0x2 00
 COMMON         0x0030a988        0x8 code\libs\libbt_bt15.a(radio.o)
                0x0030a988                BT_PCM_CON_save
                0x0030a98c                ESCOPORTCNTL0_save
 COMMON         0x0030a990        0x2 code\libs\libbt_bt15.a(hfp_ag_profile.o)
                0x0030a990                hfp_ag_channel_id
 *fill*         0x0030a992        0x2 00
 COMMON         0x0030a994        0x8 code\libs\clk_ac46.a(clock_moudle.o)
                0x0030a994                g_clock_lsb_div
                0x0030a998                g_clock_moudle_err
 COMMON         0x0030a99c       0x10 code\libs\lib_encode.a(encode.o)
                0x0030a99c                enc_mpx_sem
                0x00300000                _SDRAM_BEGIN_ADDR = ORIGIN (ram0)
                0x0030a9ac                _SRAM_END_ADDR = .
                0x0000a9ac                _sram_end = (. - ORIGIN (ram0))
                0x00344000                . = ORIGIN (ram1)

.data1          0x00344000      0x87c
 *memcpy.o(.text .rodata*)
 .text          0x00344000       0x9c C:\JL\dv10\lib\libc.a(lib_a-memcpy.o)
                0x00344000                memcpy
 *memset.o(.text .rodata*)
 .text          0x0034409c       0xb0 C:\JL\dv10\lib\libc.a(lib_a-memset.o)
                0x0034409c                memset
 *(.flushinv_icache)
 .flushinv_icache
                0x0034414c       0x20 obj\Debug\\code\cpu\ac46\driver\clock.o
                0x0034414c                set_spi_speed
 .flushinv_icache
                0x0034416c       0xe4 code\libs\lib_cache_vm_bt15.a(vm.o)
 *low_power.o(.text .rodata*)
 .text          0x00344250        0x0 obj\Debug\\code\apps\rtc\rtc_low_power.o
 .text          0x00344250      0x5b0 obj\Debug\\code\cpu\ac46\driver\low_power.o
                0x00344250                low_power_mode
 .rodata.str1.4
                0x00344800       0x3c obj\Debug\\code\cpu\ac46\driver\low_power.o
 .rodata        0x0034483c       0x40 obj\Debug\\code\cpu\ac46\driver\low_power.o

.bss2           0x0034487c      0x19c
 *(.dac_buf_sec)
 .dac_buf_sec   0x0034487c      0x100 obj\Debug\\code\cpu\ac46\driver\dac.o
 *(.sd_buf)
 .sd_buf        0x0034497c       0x38 code\libs\sd.a(sd_global_var.o)
                0x0034497c                sd0_cmd_buf
                0x00344994                sd1_cmd_buf
                0x003449ac                g_sd0_var_p
                0x003449b0                g_sd1_var_p
 *(.usb_buf)
 .usb_buf       0x003449b4       0x64 code\libs\usb.a(usb_global_var.o)
                0x003449b4                g_usb_detect_var
                0x003449bc                USB_Bulk_only
                0x003449fc                g_usb_var_p
                0x00344a00                g_slave_ep0
                0x00344a04                g_susb_dmabuf_p
                0x00344a08                mass_mutex
                0x01001400                . = ORIGIN (flash)

.text           0x01001400    0x70f24
 *startup.o(.text)
 .text          0x01001400      0x300 code\libs\sys_cfg_ac46.a(startup.o)
                0x01001400                START
                0x010014a8                handle__timer0_isr
                0x010014c2                handle__timer1_isr
                0x010014dc                handle__timer2_isr
                0x010014f6                handle__timer3_isr
                0x01001510                handle__uart0_isr
                0x0100152a                handle__uart1_isr
                0x01001544                handle__uart2_isr
                0x0100155e                handle__iic_isr
                0x01001578                handle(short, int *, _, int, short, long double)
                0x01001592                handle__OSTimeTick
                0x010015ac                handle__audio_isr
                0x010015c6                handle__bt_pcm_alink_isr
                0x010015e0                handle__bt_debug_isr
                0x010015fa                handle__soft_irq_handler
                0x01001614                handle__sd0_isr
                0x0100162e                handle(short, double, _, int, short, long double)
                0x01001648                handle__usbs_ctl_isr
                0x01001662                handle__rtc_isr
                0x0100167c                handle__fcc_uart_isr
                0x01001696                handle__fm_lofc_svr
                0x010016b0                handle__fm_svr
                0x010016ca                handle__test_rf_rx_handler
                0x010016e4                handle__nfc_isr
                0x01001700                _VM_CODE_START = .
 *(.vm)
 .vm            0x01001700      0x87c code\libs\lib_cache_vm_bt15.a(vm.o)
                0x01001dd0                _vm_eraser
                0x01001e3c                _vm_write
                0x01001f7c                _VM_CODE_END = .
                0x01001f7c                _sound_dev_instance_begin = .
 *(.sound_dev.ins)
                0x01001f7c                _sound_dev_instance_end = .
                0x01001f7c                _fsys_begin = .
 *(.fsys)
                0x01001f7c                _fsys_end = .
                0x01001f7c                _dev_drv_begin = .
 *(.fsys_dev_drv)
                0x01001f7c                _dev_drv_end = .
                0x01001f7c                _sound_proc_begin = .
 *(.sound_proc)
                0x01001f7c                _sound_proc_end = .
                0x01001f7c                _sound_dev_begin = .
 *(.sound_dev)
                0x01001f7c                _sound_dev_end = .
                0x01001f7c                _bt_sleep_begin = .
 *(.bt_sleep)
 .bt_sleep      0x01001f7c        0x8 code\libs\libbt_bt15.a(a2dp.o)
                0x01001f7c                bt_suspend_a2dp_resume
 .bt_sleep      0x01001f84        0x8 code\libs\libbt_bt15.a(hci.o)
                0x01001f84                bt_suspend_hci_resume
                0x01001f8c                _bt_sleep_end = .
                0x01001f8c                _task_list_begin = .
 *(.task_info)
 .task_info     0x01001f8c        0xc obj\Debug\\code\apps\fm\fm_radio.o
                0x01001f8c                fm_radio_task_info
 .task_info     0x01001f98        0xc obj\Debug\\code\apps\idle\idle.o
                0x01001f98                idle_task_info
 .task_info     0x01001fa4        0xc obj\Debug\\code\apps\linein\linein.o
                0x01001fa4                linein_task_info
 .task_info     0x01001fb0        0xc obj\Debug\\code\apps\music\music.o
                0x01001fb0                music_task_info
 .task_info     0x01001fbc        0xc obj\Debug\\code\apps\music\play_sel.o
                0x01001fbc                play_sel_task_info
 .task_info     0x01001fc8        0xc obj\Debug\\code\apps\record\record.o
                0x01001fc8                rec_task_info
 .task_info     0x01001fd4        0xc obj\Debug\\code\apps\usb_device\usb_device.o
                0x01001fd4                pc_task_info
 .task_info     0x01001fe0       0x18 code\libs\libbt_bt15.a(btstack.o)
                0x01001fe0                btstack_task_info
                0x01001fec                bt_hid_task_info
                0x01001ff8                _task_list_end = .
 *(.text .rodata*)
 .text          0x01001ff8       0x80 obj\Debug\\code\apps\bt\aec\aec_api.o
                0x01001ff8                btcfg_aec_init
                0x0100200c                agc_init
 .text          0x01002078      0x2a0 obj\Debug\\code\apps\bt\btstack\bt_configs_user.o
                0x01002078                bt_get_battery_value
                0x01002084                bt_read_remote_name
                0x010020ac                call_vol_change
                0x010020c0                btstack_info_init_register
                0x010020d0                bt_profile_select_init
                0x010020dc                bt_configs_check
                0x01002124                bt_function_select_init
                0x0100220c                bt_is_auto_conn
                0x01002218                bt_stack_handle_register
                0x010022a8                __bt_aec_priority
                0x010022b4                __bt_get_macro_value
 .rodata.str1.4
                0x01002318       0x63 obj\Debug\\code\apps\bt\btstack\bt_configs_user.o
                                 0x64 (size before relaxing)
 *fill*         0x0100237b        0x1 00
 .rodata        0x0100237c       0x38 obj\Debug\\code\apps\bt\btstack\bt_configs_user.o
 .text          0x010023b4      0xbfc obj\Debug\\code\apps\bt\btstack\bt_key_deal.o
                0x010023b4                auto_connected_timeout_handler_user
                0x010023f4                tone_mutex_stop
                0x0100245c                tone_mutex_play
                0x010024c8                create_bt_msg_task
                0x010024f8                hook_hfp_incoming_phone_number
                0x01002540                user_ctrl_prompt_tone_play
                0x01002788                bt_prompt_play
                0x01002794                btstack_status_change_deal
                0x010029a8                btstack_key_handler
                0x01002cc0                bt_rec_msg_del
                0x01002d08                TaskBtMsgStack
                0x01002d68                msg_mask_off_in_bt
                0x01002d74                btstack_task_create
                0x01002db8                enter_btstack_task
                0x01002e70                exist_btstack_task
                0x01002ec4                bt_discon_complete_handle
 .rodata.str1.4
                0x01002fb0       0x26 obj\Debug\\code\apps\bt\btstack\bt_key_deal.o
                                 0x28 (size before relaxing)
 *fill*         0x01002fd6        0x2 00
 .rodata        0x01002fd8       0x7c obj\Debug\\code\apps\bt\btstack\bt_key_deal.o
 .text          0x01003054        0x0 obj\Debug\\code\apps\bt\btstack\bt_key_msg.o
 .rodata        0x01003054       0xc4 obj\Debug\\code\apps\bt\btstack\bt_key_msg.o
                0x01003054                bt_ad_table
                0x010030b4                bt_ir_table
 .text          0x01003118      0x284 obj\Debug\\code\apps\bt\btstack\fcc_test.o
                0x01003118                fcc_uart_write
                0x01003154                fcc_uart_init
                0x01003210                set_test_fcc_info
                0x01003290                fcc_uart_isr
                0x01003370                test_fcc_default_info
 .text          0x0100339c      0xa14 obj\Debug\\code\apps\fm\fm_api.o
                0x0100339c                fm_output_data
                0x010034ac                fm_hw_init
                0x010034e0                fm_auto_set
                0x0100351c                fm_cbuf_write
                0x01003540                fm_cbuf_read_start
                0x01003560                fm_cbuf_read_over
                0x0100358c                fm_cbuf_init
                0x010035e8                fm_cbuf_close
                0x01003614                freq_set
                0x01003630                src_fun
                0x010036ac                fm_sr_convert_stop
                0x010036e8                fm_sr_convert_start
                0x01003870                fm_open
                0x010038c4                fm_rev_powerdown
                0x010038fc                my_get_one_count
                0x0100391c                get_total_mem_channel
                0x01003964                get_channel_via_fre
                0x010039b0                get_fre_via_channle
                0x010039f8                fm_module_mute
                0x01003a08                set_fre
                0x01003a5c                fm_save_info
                0x01003a74                clear_all_fm_point
                0x01003a98                delete_fm_point
                0x01003ac8                fm_read_info
                0x01003ae0                fm_info_init
                0x01003bac                init_fm_rev
                0x01003c48                save_fm_point
                0x01003c8c                fm_scan
                0x01003d64                ch_save
 .rodata.str1.4
                0x01003db0       0x26 obj\Debug\\code\apps\fm\fm_api.o
                                 0x28 (size before relaxing)
 *fill*         0x01003dd6        0x2 00
 .text          0x01003dd8        0x0 obj\Debug\\code\apps\fm\fm_key.o
 .rodata        0x01003dd8       0xc4 obj\Debug\\code\apps\fm\fm_key.o
                0x01003dd8                fm_ad_table
                0x01003e38                fm_ir_table
 .text          0x01003e9c        0xc obj\Debug\\code\apps\fm\fm_prompt.o
                0x01003e9c                fm_prompt_play
 .text          0x01003ea8      0x8c0 obj\Debug\\code\apps\fm\fm_radio.o
                0x01004000                fm_tone_play
 .rodata.str1.4
                0x01004768       0x1a obj\Debug\\code\apps\fm\fm_radio.o
                                 0x34 (size before relaxing)
 *fill*         0x01004782        0x2 00
 .text          0x01004784      0x270 obj\Debug\\code\apps\idle\idle.o
                0x010049e8                idle_tone_play
 .rodata.str1.4
                0x010049f4       0xd5 obj\Debug\\code\apps\idle\idle.o
                                 0xe4 (size before relaxing)
 *fill*         0x01004ac9        0x3 00
 .text          0x01004acc        0x0 obj\Debug\\code\apps\idle\idle_key.o
 .rodata        0x01004acc       0xc4 obj\Debug\\code\apps\idle\idle_key.o
                0x01004acc                idle_ad_table
                0x01004b2c                idle_ir_table
 .text          0x01004b90      0x108 obj\Debug\\code\apps\linein\dev_linein.o
                0x01004b90                linein_check
                0x01004bf8                aux_detect
                0x01004c34                aux_is_online
                0x01004c44                aux_init_api
                0x01004c54                aux_check_api
 .rodata.str1.4
                0x00000000        0xc obj\Debug\\code\apps\linein\dev_linein.o
 .rodata        0x01004c98        0x2 obj\Debug\\code\apps\linein\dev_linein.o
                0x01004c98                aux_event_tab
 *fill*         0x01004c9a        0x2 00
 .text          0x01004c9c      0x640 obj\Debug\\code\apps\linein\linein.o
                0x01004c9c                amux_two_in_one_on
                0x01004ca8                amux_two_in_one_off
                0x01004cb4                amux_one_in_two_on
                0x01004cf0                amux_one_in_two_off
                0x01004e34                amux_two_in_one_set
                0x01004e50                amux_one_in_two_set
                0x01004e6c                aux_dac_channel_off
                0x01004e9c                aux_dac_channel_on
                0x01004ef4                aux_tone_play
                0x01004f9c                aux_info_init
                0x01004fe8                AC3_mode_init
 .rodata.str1.4
                0x010052dc       0x28 obj\Debug\\code\apps\linein\linein.o
 .text          0x01005304        0x0 obj\Debug\\code\apps\linein\linein_key.o
 .rodata        0x01005304       0xc4 obj\Debug\\code\apps\linein\linein_key.o
                0x01005304                linein_ad_table
                0x01005364                linein_ir_table
 .text          0x010053c8        0xc obj\Debug\\code\apps\linein\linein_prompt.o
                0x010053c8                linein_prompt_play
 .text          0x010053d4      0xa30 obj\Debug\\code\apps\main\main.o
                0x01005404                vm_start
                0x01005da4                main_task_init
 .rodata.str1.4
                0x01005e04       0x5c obj\Debug\\code\apps\main\main.o
                                 0x8c (size before relaxing)
 .text          0x01005e60        0x0 obj\Debug\\code\apps\main\main_key.o
 .rodata        0x01005e60       0xc4 obj\Debug\\code\apps\main\main_key.o
                0x01005e60                main_ad_table
                0x01005ec0                main_ir_table
 .text          0x01005f24      0x220 obj\Debug\\code\apps\main\vm_api.o
                0x01005f24                vm_open_all
                0x01005fa4                vm_write_api
                0x01005fd8                vm_read_api
                0x01006038                vm_cache_write
                0x010060c4                vm_cache_submit
 .rodata        0x01006144        0x9 obj\Debug\\code\apps\main\vm_api.o
                0x01006144                vm_index_len
 *fill*         0x0100614d        0x3 00
 .text          0x01006150       0xf8 obj\Debug\\code\apps\music\ef_api.o
                0x01006150                eq_filter_config
                0x01006178                read_cfg_file
 .rodata        0x01006248      0x1bc obj\Debug\\code\apps\music\ef_api.o
                0x01006248                EQ_TableCode
                0x010062c0                EQ_GainTableCode
                0x010062d8                eq_filt_0
                0x0100633c                eq_filt_1
                0x010063a0                eq_filt_2
 .text          0x01006404     0x1384 obj\Debug\\code\apps\music\music.o
                0x010065ac                music_stop_decoder
                0x010065e8                music_play_api
                0x0100671c                music_play_by_path_rec
                0x010067a0                mp3_mode_rec_play_by_path_rec
                0x01007760                music_judge_JL_REC_folder
 .rodata.str1.4
                0x01007788      0x14c obj\Debug\\code\apps\music\music.o
                                0x164 (size before relaxing)
 .rodata        0x010078d4       0xa4 obj\Debug\\code\apps\music\music.o
                0x0100795c                rpt_str
 .text          0x01007978       0xe0 obj\Debug\\code\apps\music\music_info.o
                0x01007978                set_flac_sys_freq
                0x010079bc                music_get_file_id3
                0x010079d4                music_file_info
                0x01007a28                get_floder_name
                0x01007a48                get_floder_totalfile
 .rodata.str1.4
                0x01007a58       0x24 obj\Debug\\code\apps\music\music_info.o
                                 0x30 (size before relaxing)
 .text          0x01007a7c        0x0 obj\Debug\\code\apps\music\music_key.o
 .rodata        0x01007a7c       0xc4 obj\Debug\\code\apps\music\music_key.o
                0x01007a7c                music_ad_table
                0x01007adc                music_ir_table
 .text          0x01007b40       0x18 obj\Debug\\code\apps\music\music_prompt.o
                0x01007b40                prompt_play_end
                0x01007b4c                music_prompt_play
 .text          0x01007b58      0x5d0 obj\Debug\\code\apps\music\play_sel.o
                0x01007c00                play_sel_stop_decoder
                0x01007fcc                play_sel
                0x010080dc                play_sel_busy
                0x010080f4                play_sel_stop
 .rodata.str1.4
                0x01008128       0x25 obj\Debug\\code\apps\music\play_sel.o
                                 0x28 (size before relaxing)
 *fill*         0x0100814d        0x3 00
 .text          0x01008150        0x0 obj\Debug\\code\apps\record\rec_key.o
 .rodata        0x01008150       0xc4 obj\Debug\\code\apps\record\rec_key.o
                0x01008150                adkey_msg_rec_table
                0x010081b0                irff00_msg_rec_table
 .text          0x01008214      0x924 obj\Debug\\code\apps\record\record.o
                0x010082e0                bt_rec_get_data
                0x0100835c                enc_tone_play
                0x010083e4                rec_init
                0x01008674                start_rec
                0x01008848                rec_msg_del
 .rodata.str1.4
                0x01008b38      0x2ac obj\Debug\\code\apps\record\record.o
                                0x2d8 (size before relaxing)
 .rodata        0x01008de4       0x28 obj\Debug\\code\apps\record\record.o
                0x01008de4                enc_bitrate_h
                0x01008df4                enc_bitrate_l
 .text          0x01008e0c        0x0 obj\Debug\\code\apps\rtc\irtc.o
 .text          0x01008e0c        0x0 obj\Debug\\code\apps\rtc\rtc.o
 .text          0x01008e0c        0x0 obj\Debug\\code\apps\rtc\rtc_key.o
 .text          0x01008e0c        0xc obj\Debug\\code\apps\rtc\rtc_prompt.o
                0x01008e0c                rtc_prompt_play
 .text          0x01008e18        0x0 obj\Debug\\code\apps\rtc\rtc_setting.o
 .text          0x01008e18      0x350 obj\Debug\\code\apps\usb_device\dev_pc.o
                0x01008e18                hook_susb_msg
                0x01008e30                usb_slave_SD_MASS
                0x01008ec0                set_speaker_volume
                0x01008f00                usb_slave_audio_init
                0x01008f78                pc_set_speaker_vol
                0x0100901c                pc_dac_mute
                0x0100904c                pc_dac_on
                0x01009080                pc_dac_off
                0x010090a8                usb_slave_init
                0x01009124                pc_check_api
 .rodata.str1.4
                0x01009168       0x34 obj\Debug\\code\apps\usb_device\dev_pc.o
                                 0x4c (size before relaxing)
 .rodata        0x0100919c        0x2 obj\Debug\\code\apps\usb_device\dev_pc.o
                0x0100919c                pc_event_tab
 *fill*         0x0100919e        0x2 00
 .text          0x010091a0        0xc obj\Debug\\code\apps\usb_device\pc_prompt.o
                0x010091a0                pc_prompt_play
 .text          0x010091ac      0x58c obj\Debug\\code\apps\usb_device\usb_device.o
                0x01009350                pc_tone_play
 .rodata.str1.4
                0x01009738      0x1cf obj\Debug\\code\apps\usb_device\usb_device.o
                                0x1dc (size before relaxing)
 *fill*         0x01009907        0x1 00
 .text          0x01009908        0x0 obj\Debug\\code\apps\usb_device\usb_key.o
 .rodata        0x01009908       0xc4 obj\Debug\\code\apps\usb_device\usb_key.o
                0x01009908                adkey_msg_usb_table
                0x01009968                irff00_msg_usb_table
 .text          0x010099cc       0xd4 obj\Debug\\code\common\ASCII_lib.o
                0x010099cc                ASCII_StrCmp
                0x01009a0c                ASCII_IntToStr
                0x01009a60                ASCII_StrToInt
 .text          0x01009aa0       0x7c obj\Debug\\code\common\common.o
                0x01009aa0                delay_count
                0x01009ab8                delay_2ms
                0x01009ad0                delay
                0x01009adc                my_memzero
                0x01009aec                store_word
                0x01009afc                store_dword
 .text          0x01009b1c      0x114 obj\Debug\\code\common\dev_manage\dev_ctl.o
                0x01009b1c                sd0_io_check
                0x01009b28                dev_detect_fun
                0x01009b40                dev_ctrl_sys_init
 .rodata.str1.4
                0x01009c30        0xe obj\Debug\\code\common\dev_manage\dev_ctl.o
                                 0x10 (size before relaxing)
 *fill*         0x01009c3e        0x2 00
 .text          0x01009c40        0x0 obj\Debug\\code\common\fcvt.o
 .text          0x01009c40      0x46c obj\Debug\\code\common\file_operate\file_operate.o
                0x01009fe4                try_play_dev
                0x0100a048                file_operate_ctl
 .rodata        0x0100a0ac       0x64 obj\Debug\\code\common\file_operate\file_operate.o
 .text          0x0100a110       0x70 obj\Debug\\code\common\os_api\os_api.o
                0x0100a110                os_task_create
                0x0100a158                OS_TASK_DEL_HOOK
 .text          0x0100a180      0x338 obj\Debug\\code\common\os_api\task_manage.o
                0x0100a244                os_task_delete
                0x0100a290                os_task_ready_delete
                0x0100a29c                compare_task_name
                0x0100a2d8                task_switch
 .rodata.str1.4
                0x0100a4b8       0x4d obj\Debug\\code\common\os_api\task_manage.o
                                 0x70 (size before relaxing)
 *fill*         0x0100a505        0x3 00
 .rodata        0x0100a508       0x10 obj\Debug\\code\common\os_api\task_manage.o
                0x0100a508                music_task_2_dev
                0x0100a510                pc_task_2_dev
 .text          0x0100a518      0x3c0 obj\Debug\\code\common\printf-stdarg.o
                0x0100a518                printchar
                0x0100a894                printf
                0x0100a8b8                sprintf
 .rodata.str1.4
                0x0100a8d8        0x7 obj\Debug\\code\common\printf-stdarg.o
                                  0x8 (size before relaxing)
 *fill*         0x0100a8df        0x1 00
 .text          0x0100a8e0      0xe64 obj\Debug\\code\common\ui\led7_drv.o
                0x0100a8e0                led7_clear_icon
                0x0100a8f8                led7_setX
                0x0100a908                led7_show_null
                0x0100a938                led7_show_char
                0x0100aa24                led7_show_string
                0x0100aa48                led7_show_dev
                0x0100aa7c                led7_show_string_menu
                0x0100ab9c                led7_show_string_standby
                0x0100abb0                led7_show_string_intro
                0x0100abd0                led7_show_prev_next_folder
                0x0100abf0                led7_show_filenumber
                0x0100acc8                led7_show_IR_number
                0x0100ad84                led7_show_music_main
                0x0100ae38                led7_show_AUX_PAUSE
                0x0100ae64                led7_show_stop
                0x0100ae8c                led7_show_eq
                0x0100af04                led7_show_playmode
                0x0100af34                led7_show_volume
                0x0100af74                led7_show_fm_main
                0x0100b094                led7_show_fm_station
                0x0100b0d4                music_flash
                0x0100b0e0                led7_show_rec_start
                0x0100b17c                led7_show_rec_main
                0x0100b1c0                led7_show_rec_time
                0x0100b1dc                led7_show_rec
                0x0100b200                led7_show_del
                0x0100b214                led7_mute_flash
                0x0100b238                blueToothLedProc
                0x0100b26c                LED_drive7
                0x0100b458                led7_clear
                0x0100b490                led7_init
                0x0100b49c                led7_scan
 .rodata.str1.4
                0x0100b744       0x45 obj\Debug\\code\common\ui\led7_drv.o
                                 0x68 (size before relaxing)
 *fill*         0x0100b789        0x3 00
 .rodata        0x0100b78c      0x130 obj\Debug\\code\common\ui\led7_drv.o
                0x0100b7a8                LED_NUMBER
                0x0100b7b2                LED_LARGE_LETTER
                0x0100b7cc                LED_SMALL_LETTER
                0x0100b7e6                led_8grid_value
                0x0100b81e                led_icon_value
                0x0100b82c                playmodestr
                0x0100b840                menu_string
                0x0100b877                other_string
                0x0100b88b                Ht1621Tab
                0x0100b89b                Ht1621Tab1
                0x0100b8ab                Ht1621Tab2
 .text          0x0100b8bc      0x1fc obj\Debug\\code\common\ui\led_ui_api.o
                0x0100b8bc                UI_menu_api
 .rodata        0x0100bab8       0xd8 obj\Debug\\code\common\ui\led_ui_api.o
 .text          0x0100bb90      0x238 obj\Debug\\code\common\ui\ui_common.o
                0x0100bb90                itoa1
                0x0100bbdc                itoa2
                0x0100bc54                itoa3
                0x0100bcf8                itoa4
 .rodata        0x0100bdc8        0xc obj\Debug\\code\common\ui\ui_common.o
                0x0100bdc8                asc_number
 .text          0x0100bdd4       0xac obj\Debug\\code\common\voice_prompt\voice_prompt.o
                0x0100bdd4                voice_prompt_play
 .rodata.str1.4
                0x0100be80       0x22 obj\Debug\\code\common\voice_prompt\voice_prompt.o
                                 0x24 (size before relaxing)
 *fill*         0x0100bea2        0x2 00
 .text          0x0100bea4      0x290 obj\Debug\\code\cpu\ac46\board\board_bt15_v0.o
                0x0100bea4                exception_isr
                0x0100bec0                CLR_WDT
                0x0100becc                vm_init_api
                0x0100bf8c                main
 .rodata.str1.4
                0x0100c134      0x10d obj\Debug\\code\cpu\ac46\board\board_bt15_v0.o
                                0x110 (size before relaxing)
 *fill*         0x0100c241        0x3 00
 .text          0x0100c244        0x0 obj\Debug\\code\cpu\ac46\driver\M62429.o
 .text          0x0100c244       0xa0 obj\Debug\\code\cpu\ac46\driver\clock.o
                0x0100c244                set_sys_freq
 .text          0x0100c2e4      0x518 obj\Debug\\code\cpu\ac46\driver\dac.o
                0x0100c2e4                get_dac_energy_value
                0x0100c2f4                dac_reg_init
                0x0100c348                clear_dac_dma_buf
                0x0100c360                clear_dac_cbuf
                0x0100c374                dac_buf_init
                0x0100c3f0                dac_set_samplerate
                0x0100c4b8                dac_write
                0x0100c500                cbuf_write_dac
                0x0100c518                dac_isr
                0x0100c6a8                dac_get_inbuf_len
                0x0100c6b8                dac_get_inbuf_totlen
                0x0100c6c8                dac_on_init
                0x0100c6f0                audio_isr
                0x0100c71c                audio_init
                0x0100c7ec                is_auto_mute
 .rodata.str1.4
                0x0100c7fc       0x2d obj\Debug\\code\cpu\ac46\driver\dac.o
                                 0x30 (size before relaxing)
 *fill*         0x0100c829        0x3 00
 .text          0x0100c82c        0x0 obj\Debug\\code\cpu\ac46\driver\encoder.o
 .text          0x0100c82c       0x60 obj\Debug\\code\cpu\ac46\driver\interrupt_isr.o
                0x0100c82c                timer2_isr
                0x0100c838                timer3_isr
                0x0100c844                uart0_isr
                0x0100c850                uart1_isr
                0x0100c85c                uart2_isr
                0x0100c868                iic_isr
                0x0100c874                spi1_isr
                0x0100c880                rtc_isr
 .text          0x0100c88c      0x22c obj\Debug\\code\cpu\ac46\driver\key.o
                0x0100c88c                key_init
                0x0100c8b4                key2msg_filter
                0x0100c924                get_key_value
                0x0100c9a4                key_scan
                0x0100ca68                key_msg_register
 .rodata.str1.4
                0x00000000        0xc obj\Debug\\code\cpu\ac46\driver\key.o
 .text          0x0100cab8      0x1b8 obj\Debug\\code\cpu\ac46\driver\key_drv_ad.o
                0x0100cab8                set_adc_clk
                0x0100cb08                ad_key0_init
                0x0100cba4                adc_scan
                0x0100cc28                get_adkey_value
 .rodata        0x0100cc70       0x48 obj\Debug\\code\cpu\ac46\driver\key_drv_ad.o
                0x0100cc70                ad_table
                0x0100cc80                ad_key_table
                0x0100cc98                sys2adc_clk_info
 .text          0x0100ccb8        0x0 obj\Debug\\code\cpu\ac46\driver\key_drv_io.o
 .text          0x0100ccb8      0x318 obj\Debug\\code\cpu\ac46\driver\key_drv_ir.o
                0x0100ccb8                ir_timeout
                0x0100ccdc                timer1_isr
                0x0100cdfc                set_ir_clk
                0x0100ce5c                ir_key_init
                0x0100ced4                get_irkey_value
 .rodata        0x0100cfd0       0xe0 obj\Debug\\code\cpu\ac46\driver\key_drv_ir.o
                0x0100cfd0                IRTab0
                0x0100d010                IRTab1
                0x0100d050                IRTab2
 .text          0x0100d0b0        0x0 obj\Debug\\code\cpu\ac46\driver\key_drv_tch.o
 .text          0x0100d0b0      0x108 obj\Debug\\code\cpu\ac46\driver\key_voice.o
                0x0100d0b0                key_voice_init
                0x0100d0dc                key_voice_busy
                0x0100d0ec                send_key_voice
                0x0100d0f8                add_key_voice
 .rodata        0x0100d1b8       0x5c obj\Debug\\code\cpu\ac46\driver\key_voice.o
                0x0100d1b8                key_voice_44100Hz_tab
                0x0100d1d8                key_voice_48000Hz_tab
                0x0100d1fc                key_voice_32000Hz_tab
 .text          0x0100d214        0x0 obj\Debug\\code\cpu\ac46\driver\kok_detect.o
 .text          0x0100d214      0x42c obj\Debug\\code\cpu\ac46\driver\ladc.o
                0x0100d214                ladc_buf_init
                0x0100d260                ladc_reg_init
                0x0100d40c                disable_ladc
                0x0100d4c8                cbuf_read_adc
                0x0100d4e0                ladc_isr
 .rodata.str1.4
                0x0100d640        0xe obj\Debug\\code\cpu\ac46\driver\ladc.o
                                 0x34 (size before relaxing)
 *fill*         0x0100d64e        0x2 00
 .text          0x0100d650      0x170 obj\Debug\\code\cpu\ac46\driver\led.o
                0x0100d650                setLedLight
                0x0100d67c                showLed
                0x0100d6cc                showLedMode
                0x0100d79c                led_scan
 .rodata        0x0100d7c0       0x18 obj\Debug\\code\cpu\ac46\driver\led.o
 .text          0x0100d7d8        0x0 obj\Debug\\code\cpu\ac46\driver\pt2313.o
 .text          0x0100d7d8      0x230 obj\Debug\\code\cpu\ac46\driver\sys_detect.o
                0x0100d7d8                pa_mute
                0x0100d7e4                pa_umute
                0x0100d7f0                sys_power_up_check
                0x0100d7fc                bt_mp3_detect
                0x0100d844                power_up_task
                0x0100d938                usb_2_io
                0x0100d958                sys_init
 .rodata.str1.4
                0x00000000       0x30 obj\Debug\\code\cpu\ac46\driver\sys_detect.o
 .text          0x0100da08      0x284 obj\Debug\\code\cpu\ac46\driver\timer.o
                0x0100da08                init_tick_timer
                0x0100da30                rand_num_maker
                0x0100da68                delay_n2ms
                0x0100da80                timer0_isr
                0x0100dbfc                timer0_init
 .rodata        0x0100dc8c       0x40 obj\Debug\\code\cpu\ac46\driver\timer.o
                0x0100dc8c                timer_div
 .text          0x0100dccc      0x10c obj\Debug\\code\cpu\ac46\driver\uart.o
                0x0100dccc                uart1_init
                0x0100dcd8                getbyte
                0x0100dce4                put_u4hex
                0x0100dcf0                put_u32hex
                0x0100dcfc                put_u16hex
                0x0100dd08                put_u32hex0
                0x0100dd14                put_u8hex0
                0x0100dd20                put_u8hex
                0x0100dd2c                put_buf
                0x0100dd38                printf_buf
                0x0100dd44                puts_without_lock
                0x0100dd50                printf_without_lock
                0x0100dd5c                puts
                0x0100dd74                init_uart_mutex
                0x0100ddb0                printf_data
 .rodata.str1.4
                0x0100ddd8       0x30 obj\Debug\\code\cpu\ac46\driver\uart.o
 .text          0x0100de08      0x2d4 code\libs\dec_lib_ac46.a(music_api.o)
                0x0100de08                music_play
 .rodata.str1.4
                0x0100e0dc        0x8 code\libs\dec_lib_ac46.a(music_api.o)
 .text          0x0100e0e4       0x84 code\libs\dec_lib_ac46.a(sup_dec_op.o)
                0x0100e0e4                set_music_sr
                0x0100e0f8                sup_dec_phy_op
                0x0100e114                sup_dec_op_over
                0x0100e15c                sup_dec_op_clear
 .rodata.str1.4
                0x0100e168       0x38 code\libs\dec_lib_ac46.a(sup_dec_op.o)
 .text          0x0100e1a0      0x814 code\libs\dec_lib_ac46.a(decoder_phy.o)
                0x0100e250                get_decode_time
                0x0100e260                __decoder_match
                0x0100e2c0                malloc_fun
                0x0100e2ec                free_fun
                0x0100e310                reg_get_id3head
                0x0100e320                ff_id3v2_match
                0x0100e37c                ff_cal_id3v2_tag_len
                0x0100e3b8                get_ff_id3v2_len
                0x0100e430                dec_time2point
                0x0100e468                decoder_phy
                0x0100e5dc                decoder_phy_task
                0x0100e618                stop_decoder
                0x0100e6bc                start_decoder
                0x0100e8d0                kick_start_decoder
                0x0100e8f4                pp_decode
                0x0100e964                dec_ff_fr
 .rodata.str1.4
                0x0100e9b4       0x14 code\libs\dec_lib_ac46.a(decoder_phy.o)
                                 0x18 (size before relaxing)
 .text          0x0100e9c8      0x2b4 code\libs\cbuf.a(circular_buf.o)
                0x0100e9c8                cbuf_read
                0x0100ea34                cbuf_prewrite
                0x0100ea98                cbuf_updata_prewrite
                0x0100eaa8                cbuf_discard_prewrite
                0x0100eab8                cbuf_write
                0x0100eb2c                cbuf_is_write_able
                0x0100eb44                cbuf_write_alloc
                0x0100eb8c                cbuf_write_updata
                0x0100eba4                cbuf_read_alloc
                0x0100ebe4                cbuf_read_updata
                0x0100ec08                cbuf_init
                0x0100ec20                cbuf_clear
                0x0100ec38                cbuf_rewrite
 .rodata.str1.4
                0x0100ec7c        0xc code\libs\cbuf.a(circular_buf.o)
 .text          0x0100ec88      0x48c code\libs\lib_dac.a(dac_init.o)
                0x0100ed8c                adda_analog_init
                0x0100eec4                dac_on
                0x0100ef80                get_point
                0x0100ef98                lib_div2
                0x0100f024                dac_trim
                0x0100f0f8                dac_trim_init
 .text          0x0100f114      0xb4c code\libs\lib_dac.a(dac_channel.o)
                0x0100f114                MUTE_CTL
                0x0100f18c                get_mute_status
                0x0100f19c                dac_amux0_set
                0x0100f1e4                dac_amux1_set
                0x0100f22c                dac_amux2_set
                0x0100f274                dac_amux_one_in_two_set
                0x0100f28c                dac_amux_two_in_one_set
                0x0100f2a4                get_cur_dac_channel
                0x0100f2b4                dac_api_init
                0x0100f2f0                set_max_analog_vol
                0x0100f318                set_dac_digital
                0x0100f328                set_dac_analog
                0x0100f3f0                dac_fade_out
                0x0100f43c                dac_channel_off
                0x0100f504                dac_fade_in
                0x0100f56c                dac_channel_on
                0x0100f694                set_sys_vol
                0x0100f7ec                get_digital_tab_vol
                0x0100f804                digital_vol_ctrl
                0x0100f870                set_digital_vol
                0x0100f890                dac_mute
                0x0100f8f0                set_analog_vol
                0x0100f904                dac_digit_energy_value
                0x0100f96c                dac_auto_mute
                0x0100f9e4                dac_fade
                0x0100fbd8                digit_auto_mute_set
                0x0100fc3c                dac_digital_lr2one
 .text          0x0100fc60       0x28 code\libs\sys_cfg_ac46.a(pll.o)
                0x0100fc60                set_tick_timer
 .text          0x0100fc88        0x8 code\libs\sys_cfg_ac46.a(reg.o)
                0x0100fc88                __udivsi3
                0x0100fc8c                __divsi3
 .text          0x0100fc90      0x1f8 code\libs\sys_cfg_ac46.a(system_cfg_file.o)
                0x0100fe4c                system_cfg_file_init
 .rodata.str1.4
                0x0100fe88       0x58 code\libs\sys_cfg_ac46.a(system_cfg_file.o)
 .rodata        0x0100fee0       0x28 code\libs\sys_cfg_ac46.a(system_cfg_file.o)
 .text          0x0100ff08      0x1bc code\libs\sys_cfg_ac46.a(hwi.o)
                0x0100ff08                default_isr_handler
                0x0100ff20                clear_ie
                0x0100ff30                set_ie
                0x0100ff40                hwi_init
                0x0100ff78                HWI_Install
                0x0101003c                DisableOSInt
                0x0101004c                EnableOSInt
                0x0101005c                ENABLE_INT
                0x01010074                DISABLE_INT
                0x01010088                CRC16
                0x010100b8                processor_id
 .rodata.str1.4
                0x010100c4       0x16 code\libs\sys_cfg_ac46.a(hwi.o)
                                 0x18 (size before relaxing)
 *fill*         0x010100da        0x2 00
 .text          0x010100dc      0x2d8 code\libs\sys_cfg_ac46.a(system_cfg.o)
                0x010100dc                __system_cfg_read_rw
                0x01010130                __system_cfg_read_ro
                0x01010198                __system_cfg_read
                0x010101b4                __system_cfg_write
                0x01010208                system_cfg_init
 .rodata.str1.4
                0x010103b4       0x28 code\libs\sys_cfg_ac46.a(system_cfg.o)
 .text          0x010103dc      0x7c4 code\libs\aec_ac46.a(aec.o)
                0x010103dc                TaskAec
                0x01010510                aec_iir
                0x01010590                set_agc_params
                0x010105b4                set_agc_params2
                0x010105e0                set_argv_params
                0x01010610                set_argv_eq_table
                0x01010624                aec_init
                0x010107cc                aec_task_start
                0x0101083c                aec_run
                0x010108a4                aec_stop
                0x01010914                fill_adc_ref_buf
                0x010109cc                fill_dac_echo_buf
                0x01010a50                get_bt_send_data
                0x01010aac                bt_pack_repair
 .rodata.str1.4
                0x01010ba0       0x12 code\libs\aec_ac46.a(aec.o)
                                 0x14 (size before relaxing)
 *fill*         0x01010bb2        0x2 00
 .rodata        0x01010bb4       0xc0 code\libs\aec_ac46.a(aec.o)
                0x01010bb4                speeker_gaintable
                0x01010c34                iir_coeff
                0x01010c64                aec_iir_Gain
 .text          0x01010c74       0x60 code\libs\aec_ac46.a(aec_tst_sd.o)
                0x01010c74                aec_tst_init
                0x01010c80                aec_sd_init
                0x01010c8c                aec_tst_task_start
                0x01010c98                TaskAecTst
                0x01010ca4                aec_tst_task_init
                0x01010cb0                aec_tst_write
                0x01010cbc                aec_tst_go
                0x01010cc8                aec_tst_read
 .text          0x01010cd4      0x30c code\libs\aec_ac46.a(cdn3_btsyn.o)
                0x01010cd4                init_aec_syn
                0x01010d08                aec_syn_bt_fill
                0x01010dd4                aec_syn_dac_get
                0x01010e84                aec_syn_adc_fill
                0x01010f1c                aec_syn_bt_get
 .text          0x01010fe0       0xf4 code\libs\aec_ac46.a(AGC.o)
                0x01010fe0                aec_new_agc
 .text          0x010110d4      0x474 code\libs\libSpeech_dection.a(Speech_detection.o)
                0x010110d4                cont_ad_init
                0x01011174                fix_log10
                0x010111c4                Speech_detection_QueryBufSize
                0x010111d0                Speech_detection_init
                0x010111d4                Speech_detection_GetData
                0x01011254                Speech_detection_InData
                0x010112a0                Speech_detection_classify
 .rodata        0x01011548       0x20 code\libs\libSpeech_dection.a(Speech_detection.o)
 .text          0x01011568       0x50 code\libs\libDAGC.a(DAGC.o)
                0x01011568                DAGC_QuaryBufSize
                0x01011578                DAGC_process
                0x01011590                DAGC_init
 .text          0x010115b8      0x354 code\libs\libDAGC.a(AGC.o)
                0x0101160c                Agc_Init
                0x0101167c                Agc_ProcessDigital
 .text          0x0101190c     0x11b4 code\libs\libsbcdeocode.a(new_sbcdec.o)
                0x0101190c                sbc_QueryBufSize
                0x01011918                get_sbc_inf
                0x01011924                sbc_default_interfaceA
                0x01011930                sbc_default_interfaceB
                0x0101193c                sbc_set_step
                0x01011948                sbc_set_err_info
                0x01011954                sbc_open
                0x010119a0                sbc_calculate_bits_internal
                0x01011dbc                sbc_calculate_bits
                0x01011e18                sbc_crc8
                0x01011e70                sbc_clip16
                0x01011e88                sbc_get_frame_length
                0x01011f00                sbc_decoder_init
                0x01011f50                sbc_get_codesize
                0x01011f94                sbc_get_bits
                0x0101200c                sbc_unpack_frame
                0x010122bc                sbc_synthesize_four
                0x0101247c                sbc_synthesize_eight
                0x01012810                sbc_synthesize_audio
                0x0101288c                sbc_init_read_bitstream
                0x010128e0                sbc_read_bitstream
                0x01012974                sbc_decode_t
                0x01012a88                sbc_finish_t
                0x01012a98                sbc_cmd
                0x01012ab0                get_sbc_ops
 .rodata        0x01012ac0      0x4a8 code\libs\libsbcdeocode.a(new_sbcdec.o)
                0x01012ac0                leavetable
                0x01012b04                crc_table
                0x01012c04                sbc_ops
 .rodata.str1.4
                0x00000000        0x4 code\libs\libsbcdeocode.a(new_sbcdec.o)
 .text          0x01012f68      0x388 code\libs\lib_mp3_decode.a(mtst_mp3.o)
                0x0101302c                mp3_decoder_open
                0x01013094                get_mp3_ops
                0x010130a4                mp3_dec_fileStatus
                0x010130e4                all_memcpy
                0x01013118                mpeg_input_data
                0x01013200                mpeg_fseek_cur
                0x01013248                get_1s_frames
 .rodata.str1.4
                0x00000000        0x4 code\libs\lib_mp3_decode.a(mtst_mp3.o)
 .rodata        0x010132f0       0x34 code\libs\lib_mp3_decode.a(mtst_mp3.o)
                0x010132f0                mp3_decoder_ops
 .text          0x01013324      0x180 code\libs\lib_mp3_decode.a(ID3tag_skip.o)
                0x010133e4                id3_tag_query
 .text          0x010134a4      0xac8 code\libs\lib_mp3_decode.a(mpegaudio.o)
                0x010134a4                init_bit_stream
                0x010134c0                reset_bit_stream
                0x01013518                get_bit_stream_len
                0x01013530                get_bit_stream_start_address
                0x01013548                get_bit_from_stream
                0x010135a0                mp3_input_data
                0x01013638                mp3_skip_bits
                0x01013698                copy_remain_data
                0x01013754                convert_sample_rate
                0x01013770                mp3_init
                0x01013824                mp3_get_frame_size
                0x01013854                cal_frame_len
                0x010138b4                mp3_get_bit_rate
                0x010138c4                get_side_info_len
                0x010138ec                mpegaudio_decode_header
                0x01013a88                check_next_frame
                0x01013bf8                ff_mpa_sync_header
                0x01013d30                mpeg_decode_header
                0x01013e70                mp3_decode
 .text          0x01013f6c     0x1dfc code\libs\lib_mp3_decode.a(layer3.o)
                0x01013f6c                III_sideinfo
                0x0101422c                III_scalefactors_lsf
                0x0101451c                III_scalefactors
                0x010146d0                III_huffdecode
                0x01014b28                III_exponents
                0x01014c7c                requantize
                0x01014d34                III_requantize
                0x01014d90                III_stereo
                0x01015184                III_reorder
                0x01015260                III_aliasreduce
                0x010152e4                fastsdct
                0x010153ec                imdct36
                0x01015514                III_imdct_l
                0x01015624                III_imdct_s
                0x010157cc                III_overlap
                0x01015804                III_overlap_z
                0x0101583c                III_freqinver
                0x01015864                mad_layer_III
                0x0101587c                mad_layer_III_decode
                0x01015b4c                mad_layer_III_gr
 .text          0x01015d68        0x0 code\libs\lib_mp3_decode.a(mpeg_ctab.o)
 .rodata        0x01015d68     0x16b0 code\libs\lib_mp3_decode.a(mpeg_ctab.o)
                0x01015d68                pre_decode
                0x01015d78                music_decode
                0x01015d88                mp3_mpa_freq_tab
                0x01015d9a                bitrate_table
                0x01015de8                linear_table
                0x01015e20                sf_table
                0x01015f20                sb_limit
                0x01015f34                sb_nbal
                0x01015f58                off_table_off
                0x01015fa8                off_table
                0x010160c0                qc_nb
                0x01016104                qc_CD
                0x0101618c                inv_tab
                0x01016198                xing_offtbl
                0x0101619c                nsfb_table
                0x010161e4                sflen_table
                0x01016204                sfb_48000_long
                0x0101621a                sfb_44100_long
                0x01016230                sfb_32000_long
                0x01016246                sfb_48000_short
                0x0101626d                sfb_44100_short
                0x01016294                sfb_32000_short
                0x010162bb                sfb_48000_mixed
                0x010162e1                sfb_44100_mixed
                0x01016307                sfb_32000_mixed
                0x0101632d                sfb_24000_long
                0x01016343                sfb_22050_long
                0x01016359                sfb_24000_short
                0x01016380                sfb_22050_short
                0x010163a7                sfb_16000_short
                0x010163ce                sfb_24000_mixed
                0x010163f2                sfb_22050_mixed
                0x01016416                sfb_16000_mixed
                0x0101643a                sfb_8000_long
                0x01016450                sfb_8000_short
                0x01016477                sfb_8000_mixed
                0x010164a0                sfbwidth_table
                0x0101650c                pretab
                0x01016518                pow2tabn
                0x01016528                rq_tab
                0x0101692c                layer3_cs
                0x0101694c                layer3_ca
                0x0101696c                window_l
                0x010169b4                csdct
                0x010169d4                sc09
                0x010169f8                sc18
                0x01016a40                window_s
                0x01016a70                imdct_s
                0x01016b00                is_tableo
                0x01016b20                is_lsf_tableo
                0x01016b98                D
 .text          0x01017418      0xd9c code\libs\lib_mp3_decode.a(mpeg_synth.o)
                0x01017418                dct32
                0x01017d74                mpegaudio_synth_full
 .text          0x010181b4        0x0 code\libs\lib_mp3_decode.a(huffman.o)
 .rodata        0x010181b4     0x1228 code\libs\lib_mp3_decode.a(huffman.o)
                0x010181b4                mad_huff_quad_table
                0x010181bc                mad_huff_pair_table
 .text          0x010193dc      0x854 code\libs\lib_mp3_decode.a(layer12.o)
                0x010193dc                I_sample
                0x0101941c                II_samples
                0x010194ec                mad_layer_I
                0x01019614                mad_layer_II
                0x01019844                I_requantize
                0x01019964                II_requantize
                0x01019b7c                mad_layer_II_gr
 .text          0x01019c30      0x1d4 code\libs\lib_wav_decode.a(testwav.o)
                0x01019de8                set_buf
                0x01019df4                get_wav_ops
 .rodata.str1.4
                0x01019e04        0x4 code\libs\lib_wav_decode.a(testwav.o)
 .rodata        0x01019e08       0x34 code\libs\lib_wav_decode.a(testwav.o)
                0x01019e08                wav_decoder_ops
 .text          0x01019e3c      0x4cc code\libs\lib_wav_decode.a(wavdec_api.o)
                0x01019e3c                wf_file_api
                0x01019fcc                file_format_check
                0x0101a2c0                wav_decode
 .text          0x0101a308      0x350 code\libs\lib_wav_decode.a(ima_adpcm.o)
                0x0101a308                ima_adpcm_decoder
                0x0101a568                pcm_decoder
 .rodata        0x0101a658      0x1a4 code\libs\lib_wav_decode.a(ima_adpcm.o)
 .text          0x0101a7fc      0x2a0 code\libs\lib_wav_decode.a(msadpcmdec.o)
                0x0101a860                ms_adpcm_decoder
 .rodata        0x0101aa9c       0x50 code\libs\lib_wav_decode.a(msadpcmdec.o)
 .text          0x0101aaec      0x524 code\libs\ef_api_ac46.a(audio_ef.o)
                0x0101aaec                ef_output
                0x0101ab08                ef_vol_info_set
                0x0101ab80                ef_vol_change
                0x0101abc0                ef_eq_info_set
                0x0101ac88                ef_resample_info_set
                0x0101acc4                ef_speed_info_set
                0x0101ad0c                ef_free
                0x0101ad6c                ef_init
                0x0101ae20                ef_reset_audio_sr
                0x0101ae5c                ef_run
                0x0101af58                ef_input
                0x0101af70                ef_enable_api
 .rodata        0x0101b010       0x48 code\libs\ef_api_ac46.a(audio_ef.o)
                0x0101b010                digital_vol_tab
 .text          0x0101b058      0x644 code\libs\lib_audio_effect.a(effect_api.o)
                0x0101b68c                get_effect_ops
 .rodata        0x0101b69c       0x18 code\libs\lib_audio_effect.a(effect_api.o)
                0x0101b69c                EF_OBJ
 .text          0x0101b6b4      0x398 code\libs\lib_audio_effect.a(eq.o)
                0x0101b6b4                set_eq_filt
                0x0101b6dc                set_eq_sr
                0x0101b768                set_eq_type
                0x0101b814                play
                0x0101b9dc                get_eq_freq
 .rodata        0x0101ba4c       0xdc code\libs\lib_audio_effect.a(eq.o)
                0x0101ba4c                EQTableCode
 .text          0x0101bb28      0x478 code\libs\lib_audio_effect.a(resample.o)
                0x0101bb28                change_resample_coeff
                0x0101bbb8                Resample_main
 .rodata        0x0101bfa0      0x132 code\libs\lib_audio_effect.a(resample.o)
                0x0101bfa0                rs_sample_coff1
                0x0101c0c0                rs_sample_coff2
 *fill*         0x0101c0d2        0x2 00
 .text          0x0101c0d4      0x484 code\libs\lib_audio_effect.a(resample_8.o)
                0x0101c0d4                change_resample8_coeff
                0x0101c164                Resample8_main
 .rodata        0x0101c558       0x9a code\libs\lib_audio_effect.a(resample_8.o)
                0x0101c558                rs_sample8_coff1
                0x0101c5e8                rs_sample8_coff2
 *fill*         0x0101c5f2        0x2 00
 .text          0x0101c5f4      0x188 code\libs\lib_audio_effect.a(resample_qk.o)
                0x0101c5f4                change_resampleQ_coeff
                0x0101c640                ResampleQ_main
 .text          0x0101c77c       0xe0 code\libs\lib_audio_effect.a(vol.o)
                0x0101c77c                config_energy_coef
                0x0101c78c                set_vol
                0x0101c798                vol_handle
 .text          0x0101c85c      0x570 code\libs\lib_wma_decode.a(mtst_wma.o)
                0x0101c8e4                get_wma_play_time
                0x0101c918                wma_set_step
                0x0101c974                wma_decoder_open
                0x0101caac                get_wma_ops
                0x0101cabc                wma_ver_init
                0x0101cb00                convert_sample_rate_wma
                0x0101cb1c                wma_ld_word
                0x0101cb2c                wma_ld_dword
                0x0101cb4c                wma_dec_fileStatus
                0x0101cb70                win_fread
                0x0101cc34                win_fseek
                0x0101ccfc                wma_type_check
                0x0101cdbc                win_ftell
 .rodata.str1.4
                0x0101cdcc        0x4 code\libs\lib_wma_decode.a(mtst_wma.o)
 .rodata        0x0101cdd0       0x34 code\libs\lib_wma_decode.a(mtst_wma.o)
                0x0101cdd0                wma_decoder_ops
 .text          0x0101ce04      0x498 code\libs\lib_wma_decode.a(wma.o)
                0x0101ce04                wma_decode_init
 .text          0x0101d29c        0x0 code\libs\lib_wma_decode.a(wma_huff.o)
 .rodata        0x0101d29c     0x3564 code\libs\lib_wma_decode.a(wma_huff.o)
                0x0101d29c                coef0_huff
                0x0101da6c                coef1_huff
                0x0101e104                coef2_huff
                0x0101ef7c                coef3_huff
                0x0101fb64                coef4_huff
                0x01020118                coef5_huff
                0x01020650                scale_huff
                0x01020794                hgain_huff
 .text          0x01020800        0x0 code\libs\lib_wma_decode.a(wma_tab.o)
 .rodata        0x01020800      0xbc4 code\libs\lib_wma_decode.a(wma_tab.o)
                0x01020800                ff_mpa_freq_tab
                0x01020812                ff_mpa_freq_tab_wma
                0x01020824                ff_wma_freq_dac
                0x01020830                ff_wma_lsp_codebook
                0x01020ab0                wma_critical_freqs
                0x01020ae2                exponent_band_22050
                0x01020b2d                exponent_band_32000
                0x01020b78                exponent_band_44100
                0x01020bc4                pow_res
                0x01020bd4                pow_4
                0x01020c58                pow10_tabs
                0x01020c68                pow10_bits
                0x01020c84                pow16_tabs
                0x01020cc4                pow20_tabs
                0x01020d14                pow10_bit
                0x01020d30                pow16
                0x01020d70                pow20
                0x01020dc0                sin_tabs
 .text          0x010213c4     0x167c code\libs\lib_wma_decode.a(wmadec.o)
                0x010213c4                wma_av_log2
                0x010213f8                ff_wma_total_gain_to_bits
                0x01021424                decode_exp_vlc
                0x010215a0                wma_decode_block
                0x01022364                chank_tagframe
                0x010223bc                wma_decode
                0x0102292c                wmacheak_log
                0x0102296c                wma_control
 .rodata        0x01022a40       0x30 code\libs\lib_wma_decode.a(wmadec.o)
                0x01022a40                ff_log2_tab
                0x01022a50                round_tab
                0x01022a68                mdct_norm_tab
 .text          0x01022a70      0x964 code\libs\lib_wma_decode.a(asf.o)
                0x01022a70                get_wav_header
                0x01022b6c                asf_read_header
                0x01022cec                wmastrpak
                0x01022f84                asf_read_packet
 .rodata        0x010233d4       0x60 code\libs\lib_wma_decode.a(asf.o)
                0x010233d4                ff_asf_header
                0x010233e4                ff_asf_file_header
                0x010233f4                ff_asf_stream_header
                0x01023404                ff_asf_audio_stream
                0x01023414                ff_asf_data_header
                0x01023424                ff_asf_content_encryption_object
 .text          0x01023434      0x26c code\libs\lib_wma_decode.a(aviobuf.o)
                0x01023434                wmafreadbuf
                0x01023478                wmafillbuf
                0x01023484                wmatestfill
                0x01023600                wma_get_bit
 .text          0x010236a0       0xf8 code\libs\lib_wma_decode.a(bitstream.o)
                0x010236a0                huffdec
 .text          0x01023798      0x964 code\libs\lib_wma_decode.a(mdct.o)
                0x01023798                imdct_calc0
                0x010238b4                imdct_calc1
                0x010239b8                wma_imdct_calc
                0x01023a04                wma_opcm_0
                0x01023c88                wma_opcm_1
                0x01023d64                wma_window
                0x01023dfc                wma_dec_dsp0
                0x01023e08                wma_dec_dsp1
                0x01023e74                wma_dec_clear
                0x01023e84                normdata6
                0x01023ecc                wma_lsp_to_curve
 .text          0x010240fc      0x6b0 code\libs\lib_wma_decode.a(dv_wma.o)
                0x010240fc                wma_reorder
                0x01024132                wma_ms_fun
                0x01024156                wma_leftbit_fun
                0x010241cc                imdct_calc0x
                0x01024288                imdct_calc1x
                0x01024342                fft_4dct_M
                0x01024474                wma_opcm_0_M
                0x0102467a                wma_opcm_1_M
                0x010246e8                fft_4dct
 .text          0x010247ac      0x8b8 code\libs\dev_mg_lib.a(drv_manage.o)
                0x01024988                dev_close
                0x01024ce4                dev_register
                0x01024d88                dev_open
                0x01024dbc                dev_read
                0x01024e40                dev_write
                0x01024ec4                dev_get_lg_seek
                0x01024f04                dev_get_online_status
                0x01024f3c                get_phydev_total
                0x01024f88                get_phydev_type
                0x01025000                phy_dev_list_init
                0x01025010                dev_init
 .rodata.str1.4
                0x01025064       0x20 code\libs\dev_mg_lib.a(drv_manage.o)
                                 0x48 (size before relaxing)
 .text          0x01025084       0xf0 code\libs\dev_mg_lib.a(mango_dev_cache.o)
                0x01025084                cache_ioctl_api
                0x010250b8                cache_power_api
                0x010250c4                cache_mount_api
                0x010250d8                cache_unmount_api
                0x010250e4                cache_write_api
                0x010250f0                cache_det_api
                0x01025118                cache_var_api
                0x01025124                cache_read_api
                0x0102514c                set_cache_base
                0x0102515c                dev_reg_cache
 .rodata        0x01025174       0x34 code\libs\dev_mg_lib.a(mango_dev_cache.o)
 .text          0x010251a8      0x270 code\libs\dev_mg_lib.a(mbr.o)
                0x010251a8                fs_api_write
                0x010251c4                fs_api_read
                0x010251ec                move_window_mbr
                0x01025220                check_fs_api
                0x01025280                mbr_mount
                0x01025368                mbr_scan
 .text          0x01025418      0x178 code\libs\dev_mg_lib.a(dev_updata_mode.o)
                0x01025418                dev_updata_mode
 .rodata        0x01025590       0x30 code\libs\dev_mg_lib.a(dev_updata_mode.o)
 .text          0x010255c0      0x1a0 code\libs\dev_mg_lib.a(dev_operate.o)
                0x010255c0                file_operate_get_total_lgdev
                0x01025698                file_operate_get_total_phydev
                0x0102569c                file_operate_ini
 .rodata        0x01025760       0x14 code\libs\dev_mg_lib.a(dev_operate.o)
 .text          0x01025774      0x378 code\libs\dev_mg_lib.a(fat_io.o)
                0x01025774                fat_drvie_check
                0x010257ec                fat_drive_open
                0x01025874                fat_drive_close
                0x01025894                fat_get_file_total
                0x010258dc                fat_get_file_byindex
                0x01025938                fat_get_file_bypath
                0x01025994                fat_get_file_bybrk_info
                0x01025a00                fat_folder_file
                0x01025a1c                fat_file_close
                0x01025a38                fat_get_brk_info
                0x01025a58                fat_read
                0x01025a5c                fat_seek
                0x01025a70                fat_mk_dir
                0x01025a80                fat_write
                0x01025a84                fat_write_close
                0x01025a94                fat_delete
                0x01025aa4                fat_open
                0x01025ac0                fat_getrec_fileinfo
                0x01025ac4                fat_get_file_name
 .text          0x01025aec      0x3ec code\libs\dev_mg_lib.a(fs_io.o)
                0x01025aec                fs_drive_open
                0x01025b60                fs_drive_close
                0x01025b98                fs_get_file_total
                0x01025bb0                fs_ready_for_file
                0x01025bf0                fs_folder_file
                0x01025c0c                fs_get_file_byindex
                0x01025c44                fs_get_file_bypath
                0x01025c7c                fs_get_file_bybrkinfo
                0x01025cb4                fs_file_close
                0x01025cf4                fs_get_brk_info
                0x01025d1c                fs_read
                0x01025d34                fs_seek
                0x01025d4c                fs_getfnum_byfolder
                0x01025dac                fs_mk_dir
                0x01025dc4                fs_write
                0x01025ddc                fs_open
                0x01025e5c                fs_close
                0x01025e74                fs_delete
                0x01025e8c                fs_get_fileinfo
                0x01025eb8                fs_file_name
 .rodata        0x01025ed8       0x98 code\libs\dev_mg_lib.a(fs_io.o)
 .text          0x01025f70      0x934 code\libs\dev_mg_lib.a(logic_dev_list.o)
                0x01025fa4                lg_dev_list_init
                0x01025ffc                lg_dev_find
                0x01026068                lg_dev_add
                0x01026104                lg_dev_find_by_phydevnum
                0x0102615c                lg_dev_del
                0x010261cc                get_total_dev
                0x01026218                get_dev_first
                0x0102626c                get_dev_last
                0x010262c0                get_dev_next
                0x01026330                get_dev_prev
                0x010263a0                get_spec_lgdev
                0x01026420                find_out_lgdev_let
                0x01026470                lg_dev_mount
                0x010264cc                lg_dev_get_lglist
                0x01026518                lg_dev_get_fat_status
                0x01026564                lg_dev_status_chg
                0x010266f0                lg_dev_get_totalfile
                0x0102670c                lg_dev_open_file_bypath
                0x01026714                lg_dev_open_file
                0x01026730                lg_dev_read_file
                0x0102674c                lg_dev_seek_file
                0x01026768                lg_dev_close
                0x01026794                lg_dev_online_status
                0x010267a0                lg_dev_get_total_phydev
                0x010267a4                lg_dev_get_phydev_type
                0x010267b0                lg_dev_find_update_file
                0x010267b8                lg_dev_get_folder_info
                0x010267c0                lg_dev_set_inuse
                0x01026834                lg_dev_close_all
 .text          0x010268a4      0x3a8 code\libs\dev_mg_lib.a(syd_io.o)
                0x010268a4                syd_drive_open
                0x0102691c                syd_drive_close
                0x0102693c                syd_getfile_total
                0x01026978                syd_get_file_byindex
                0x010269d0                syd_test22
                0x01026a48                syd_test
                0x01026ad4                syd_get_file_bypath
                0x01026b28                syd_get_file_bybrk_info
                0x01026b8c                syd_file_close
                0x01026ba8                syd_get_brk_info
                0x01026bc4                syd_get_file_addr
                0x01026be0                syd_read
                0x01026be4                syd_seek
                0x01026bf8                syd_mk_dir
                0x01026c04                syd_write
                0x01026c10                syd_write_close
                0x01026c1c                syd_delete
                0x01026c28                syd_open
                0x01026c34                syd_getrec_fileinfo
                0x01026c40                sd_get_file_name
 .text          0x01026c4c      0x208 code\libs\dev_mg_lib.a(vfs.o)
                0x01026c4c                vfs_check_dev_fs
                0x01026c58                vfs_open
                0x01026ca8                vfs_get_file_total
                0x01026ccc                vfs_open_file_bypath
                0x01026d64                vfs_open_file
                0x01026db8                vfs_read_file
                0x01026dd0                vfs_seek_file
                0x01026ddc                vfs_close
                0x01026e0c                vfs_find_update_file
                0x01026e38                vfs_get_folder_info
 .rodata.str1.4
                0x01026e54       0x2d code\libs\dev_mg_lib.a(vfs.o)
                                 0x30 (size before relaxing)
 *fill*         0x01026e81        0x3 00
 .text          0x01026e84      0xaa0 code\libs\libtff.a(ff_api.o)
                0x01026e84                fs_ext_setting
                0x01026e94                check_ext
                0x01026ecc                fast_scan_files
                0x01027064                compare_path
                0x010270e4                scan_files
                0x010273a4                fs_load_file
                0x0102740c                fs_scan_disk
                0x01027478                fs_getfile_totalindir
                0x010274c8                fs_getfile_bypath
                0x01027588                fs_getfile_bynumber
                0x010276b0                fs_getfile_bysclust
                0x01027770                fs_open_dir
                0x01027784                check_rec_ext
                0x010277b4                check_filenum
                0x0102780c                fs_getrec_fileinfo
 .rodata.str1.4
                0x01027924       0x1b code\libs\libtff.a(ff_api.o)
                                 0x1c (size before relaxing)
 *fill*         0x0102793f        0x1 00
 .text          0x01027940     0x1c60 code\libs\libtff.a(tff.o)
                0x01027940                ld_word_func
                0x01027950                ld_dword_func
                0x01027970                st_word_func
                0x01027980                st_dword_func
                0x0102799c                decode_lfn
                0x01027a64                my_mem_cmp
                0x01027ab4                toLower
                0x01027ae0                get_powerof2
                0x01027af4                UL1_SHIFT_R
                0x01027b00                UL1_SHIFT
                0x01027b0c                get_one_count
                0x01027b30                clust2sect
                0x01027b54                st_clust
                0x01027b74                sync_window
                0x01027bac                move_window
                0x01027bf0                get_fat
                0x01027ce4                get_cluster
                0x01027d9c                put_fat
                0x01027ec8                ld_clust
                0x01027efc                sync_fs
                0x01027f98                create_name
                0x01028018                remove_chain
                0x0102807c                create_chain
                0x0102812c                check_fs
                0x010283bc                judge_drive
                0x010283d0                f_mount
                0x010284bc                f_mount_api
                0x010284e8                get_dir_info
                0x0102854c                f_sync_file
                0x010285d4                f_sync_fs
                0x01028668                dir_next
                0x01028760                f_opendir
                0x010287a0                dir_alloc
                0x01028808                dir_register
                0x01028854                dir_sdi
                0x01028888                f_readnextdir
                0x01028bc0                dir_find
                0x01028c04                follow_path
                0x01028c8c                f_open
                0x01028e68                f_tell_status
                0x01028e98                f_read
                0x01028ff0                f_seek
                0x010290f4                f_write
                0x0102932c                f_mkdir
                0x010294b0                f_unlink
                0x0102954c                f_open_dir
 .rodata        0x010295a0       0x14 code\libs\libtff.a(tff.o)
                0x010295a0                fatstr
                0x010295a4                one_table
 .text          0x010295b4      0xccc code\libs\mem_ac46.a(mem_heap.o)
                0x01029778                mem_stats_init
                0x0102978c                malloc_stats
                0x010298bc                get_malloc_stats
                0x010298e0                free
                0x01029998                malloc
                0x01029f1c                calloc
                0x01029f44                realloc
 .rodata.str1.4
                0x0102a280      0x192 code\libs\mem_ac46.a(mem_heap.o)
                                0x1d4 (size before relaxing)
 *fill*         0x0102a412        0x2 00
 .rodata        0x0102a414       0x30 code\libs\mem_ac46.a(mem_heap.o)
 .text          0x0102a444       0x58 code\libs\mem_ac46.a(sbrk.o)
                0x0102a444                sbrk
 .text          0x0102a49c      0x488 code\libs\mem_ac46.a(vmalloc.o)
                0x0102a49c                set_mmu_addr_map
                0x0102a4b0                vmm_init
                0x0102a504                get_fat_count
                0x0102a52c                vfill_tag
                0x0102a580                vfree
                0x0102a5e4                vrealloc
                0x0102a6b0                vmalloc
                0x0102a740                vfree_by_addr
                0x0102a808                get_phy_addr
                0x0102a844                get_phy_addr_by_mmu
                0x0102a88c                wmalloc
                0x0102a908                wfree
 .text          0x0102a924      0x21c code\libs\mem_ac46.a(pmalloc.o)
                0x0102a968                pmalloc_init
                0x0102a9f4                pmalloc
                0x0102aaf4                pfree
 .text          0x0102ab40      0x274 code\libs\sd.a(mango_dev_sd.o)
                0x0102ab40                sd1_var_api
                0x0102ab70                sd0_var_api
                0x0102aba0                sd1_det_api
                0x0102aba8                sd0_det_api
                0x0102abb0                sd1_write_api
                0x0102abe8                sd1_read_api
                0x0102ac20                sd1_unmount_api
                0x0102ac28                sd0_unmount_api
                0x0102ac30                sd1_mount_api
                0x0102ac38                sd0_mount_api
                0x0102ac40                sd1_power_api
                0x0102ac48                sd0_power_api
                0x0102ac50                sd1_ioctl_api
                0x0102ac5c                sd0_ioctl_api
                0x0102ac68                sd0_write_api
                0x0102aca0                sd0_read_api
                0x0102acd8                get_sd0_dev_busy_status_api
                0x0102ace0                close_sd0_controller
                0x0102ace8                release_sd0_controller
                0x0102acf0                get_sd1_dev_busy_status_api
                0x0102acf8                close_sd1_controller
                0x0102ad00                release_sd1_controller
                0x0102ad08                dev_reg_sd0
                0x0102ad24                dev_reg_sd1
                0x0102ad40                SD_DELAY_MS
                0x0102ad78                SD_SEM_INIT
                0x0102ad80                SD_SEM_PEND
                0x0102ad98                SD_SEM_POST
                0x0102ada0                SD_SEM_DEL
                0x0102ada8                sd_mem_pfree
 .rodata        0x0102adb4       0x68 code\libs\sd.a(mango_dev_sd.o)
 .text          0x0102ae1c      0x4ac code\libs\sd.a(sd_controller_interface.o)
                0x0102ae1c                get_sd_dev_busy_status
                0x0102ae40                close_sd_controller
                0x0102ae94                release_sd_controller
                0x0102aed8                sd_return_var_addr
                0x0102af00                get_sd_ctller_status
                0x0102af3c                sd_cmd_lock_set
                0x0102af70                sd_ctller_flag_set
                0x0102afa0                sd_var_free
                0x0102afc4                sd_dev_ioctl
                0x0102b064                sd_dev_power
                0x0102b074                sd_dev_mount
                0x0102b078                sd_dev_unmount
                0x0102b07c                sd_dev_read
                0x0102b0e4                sd_dev_write
                0x0102b144                sd_dev_det
                0x0102b1ac                hook_sd_var
                0x0102b234                sd_rw_to_usb
                0x0102b2b0                sd0_rw_wait_idle
                0x0102b2bc                sd1_rw_wait_idle
 .rodata        0x0102b2c8       0x2c code\libs\sd.a(sd_controller_interface.o)
 .text          0x0102b2f4        0x0 code\libs\sd.a(sd_global_var.o)
 .text          0x0102b2f4      0x110 code\libs\sd.a(sd_host_read.o)
                0x0102b2f4                sd_read
                0x0102b3e4                sd0_read_go
                0x0102b3f4                sd1_read_go
 .text          0x0102b404       0xc4 code\libs\sd.a(sd_host_read_end.o)
                0x0102b404                sd_read_end
 .text          0x0102b4c8       0x70 code\libs\sd.a(sd_host_unmount.o)
                0x0102b4c8                sd_unmount
 .text          0x0102b538      0x10c code\libs\sd.a(sd_host_write.o)
                0x0102b538                sd_write
                0x0102b624                sd0_write_go
                0x0102b634                sd1_write_go
 .text          0x0102b644       0xc0 code\libs\sd.a(sd_host_write_end.o)
                0x0102b644                sd_write_end
 .text          0x0102b704      0x1ac code\libs\sd.a(sdmmc_init.o)
                0x0102b704                sd_port_init
                0x0102b7e4                sd_lowlevel_init
                0x0102b824                sd_init
 .text          0x0102b8b0       0x54 code\libs\sd.a(suspend_sdmmc.o)
                0x0102b8b0                sd_suspend
 .text          0x0102b904      0x10c code\libs\sd.a(sd_host_send_csd.o)
                0x0102b904                sd_host_send_csd
                0x0102b9e8                sd_get_capacity
 .text          0x0102ba10       0x80 code\libs\sd.a(sd_host_stop_trans.o)
                0x0102ba10                sd_host_stop_trans
 .text          0x0102ba90      0x348 code\libs\sd.a(sd_host_hw.o)
                0x0102ba90                sd_cmd_check
                0x0102bb44                sd_isr_oc
                0x0102bc10                sd0_isr
                0x0102bcf4                sd1_isr
 .rodata        0x0102bdd8       0x18 code\libs\sd.a(sd_host_hw.o)
 .text          0x0102bdf0       0x84 code\libs\sd.a(sd_wait_idle.o)
                0x0102bdf0                sd_wait_idle
 .text          0x0102be74      0x2a4 code\libs\sd.a(sdmmc_det.o)
                0x0102be74                sd_delay
                0x0102be80                sd_is_online
                0x0102bea8                sd_clk_det
                0x0102c034                sd_cmd_det_init
                0x0102c050                sd_cmd_det
                0x0102c0ac                sd_io_det
 .text          0x0102c118      0x558 code\libs\sd.a(sd_host_reg.o)
                0x0102c118                SD_CMD_MODE
                0x0102c148                SD_CMD_CRC
                0x0102c170                SD_8CLK_EN
                0x0102c19c                SD_CMD_TIMEOUT
                0x0102c1c4                CLR_SD_CMD_PENDING
                0x0102c200                SD_CMD_PENDING
                0x0102c22c                SD_DAT_MODE
                0x0102c25c                SD_DAT_CRC
                0x0102c288                SD_DAT_8CLK_EN
                0x0102c2b4                SD_SET_4WIRE_MODE
                0x0102c2e0                CLR_SD_DAT_PENDING
                0x0102c31c                SD_DAT_PENDING
                0x0102c344                SD_CONTROLLER_RESET
                0x0102c374                SD_CONTROLLER_EN
                0x0102c3a0                SD_CONTROLLER_READ
                0x0102c3cc                SD_CRC_STATE
                0x0102c3f4                SD_DAT_EDGE
                0x0102c420                SD_IDLE_CLK_EN
                0x0102c44c                SD_CMD_IE
                0x0102c478                SD_DAT_IE
                0x0102c4a4                SD_BAUD
                0x0102c4d0                SD_BLOCK_WRITE_ERR
                0x0102c500                SET_SD_CMD_PTR
                0x0102c520                SET_SD_DAT_PTR
                0x0102c540                SET_SD_CNT
                0x0102c564                sd_send_command_isr
                0x0102c5f8                sd_active_check
                0x0102c644                sd_idle_check
 .text          0x0102c670       0x44 code\libs\sd.a(sd_read_start.o)
                0x0102c670                sd_read_start
 .text          0x0102c6b4       0xbc code\libs\sd.a(sd_send_command.o)
                0x0102c6b4                sd_send_command
 .text          0x0102c770       0x44 code\libs\sd.a(sd_write_start.o)
                0x0102c770                sd_write_start
 .text          0x0102c7b4       0x90 code\libs\sd.a(sd_host_status.o)
                0x0102c7b4                sd_host_status
                0x0102c818                set_sd_host_off
 .text          0x0102c844       0x48 code\libs\sd.a(sd_host_init.o)
                0x0102c844                sd_host_init
 .text          0x0102c88c       0x88 code\libs\sd.a(sd_host_mount.o)
                0x0102c88c                sd_mount
 .text          0x0102c914       0x34 code\libs\sd.a(sd_host_timeout.o)
                0x0102c914                sd_host_timeout
 .text          0x0102c948       0xa4 code\libs\sd.a(sd_init.o)
                0x0102c948                sd_init_card
 .text          0x0102c9ec      0x2c8 code\libs\sd.a(sdmmc_host_set_bus_width.o)
                0x0102c9ec                sd_set_bus_width
 .text          0x0102ccb4       0xc0 code\libs\sd.a(sdmmc_host_set_hispeed.o)
                0x0102ccb4                sd_set_hispeed
 .text          0x0102cd74       0x18 code\libs\sd.a(mmc_host_send_rca.o)
                0x0102cd74                mmc_host_send_rca
 .text          0x0102cd8c       0x5c code\libs\sd.a(mmc_host_set_bus_width.o)
                0x0102cd8c                mmc_host_set_bus_width
 .text          0x0102cde8       0x54 code\libs\sd.a(mmc_host_set_hispeed.o)
                0x0102cde8                mmc_host_set_hispeed
 .text          0x0102ce3c        0xc code\libs\sd.a(sd_host_all_send_cid.o)
                0x0102ce3c                sd_host_all_send_cid
 .text          0x0102ce48        0xc code\libs\sd.a(sd_host_reset.o)
                0x0102ce48                sd_host_reset
 .text          0x0102ce54       0xf8 code\libs\sd.a(sd_host_sd_status.o)
                0x0102ce54                sd_host_sd_status
 .text          0x0102cf4c        0xc code\libs\sd.a(sd_host_send_if_cond.o)
                0x0102cf4c                sd_host_send_if_cond
 .text          0x0102cf58       0x48 code\libs\sd.a(sd_host_send_rca.o)
                0x0102cf58                sd_host_send_rca
 .text          0x0102cfa0       0x30 code\libs\sd.a(sd_host_set_bus_width.o)
                0x0102cfa0                sd_host_set_bus_width
 .text          0x0102cfd0       0xa4 code\libs\sd.a(sd_host_set_hispeed.o)
                0x0102cfd0                sd_host_set_hispeed
 .text          0x0102d074       0xa4 code\libs\sd.a(sd_host_switch_func.o)
                0x0102d074                sd_host_switch_func
 .text          0x0102d118       0x1c code\libs\sd.a(sd_select_card.o)
                0x0102d118                sd_select_card
 .text          0x0102d134       0xe0 code\libs\sd.a(sd_send_scr.o)
                0x0102d134                sd_send_scr
 .text          0x0102d214       0x7c code\libs\sd.a(sd_chk_ctl.o)
                0x0102d214                sd_chk_ctl
 .text          0x0102d290       0xec code\libs\sd.a(sd_host_identification.o)
                0x0102d290                sd_host_identification
 .text          0x0102d37c       0x10 code\libs\sd.a(mmc_host_send_op_cond.o)
                0x0102d37c                mmc_host_send_op_cond
 .text          0x0102d38c       0x10 code\libs\sd.a(sd_host_app_cmd.o)
                0x0102d38c                sd_host_app_cmd
 .text          0x0102d39c       0x40 code\libs\sd.a(sd_host_send_op_cond.o)
                0x0102d39c                sd_host_send_op_cond
 .text          0x0102d3dc      0x208 code\libs\usb.a(mango_dev_usb_slave.o)
                0x0102d3dc                usb_slave_ep0_var
                0x0102d3f0                pc_hold
                0x0102d450                usb_slave_ioctl_api
                0x0102d4e8                usb_slave_detect_api
                0x0102d520                usb_slave_hold
                0x0102d530                usb_slave_online_status
                0x0102d54c                usb_sd0_init
                0x0102d560                usb_read_sd0
                0x0102d564                usb_write_sd0
                0x0102d568                usb_get_sd0_capacity
                0x0102d584                usb_sd1_init
                0x0102d598                usb_read_sd1
                0x0102d59c                usb_write_sd1
                0x0102d5a0                usb_get_sd1_capacity
                0x0102d5bc                usb_slave_masstorage
                0x0102d5c8                usb_slave_hid
 .rodata        0x0102d5e4       0x24 code\libs\usb.a(mango_dev_usb_slave.o)
 .text          0x0102d608      0x18c code\libs\usb.a(usb_device_mount.o)
                0x0102d608                susb_hardware_init
                0x0102d6dc                usb_device_mount
                0x0102d744                susb_sd_register
 .text          0x0102d794       0x50 code\libs\usb.a(usb_device_unmount.o)
                0x0102d794                usb_device_unmount
 .text          0x0102d7e4      0x104 code\libs\usb.a(usb_slave_mic_adc.o)
                0x0102d7e4                usb_mic_syn_init
                0x0102d824                usb_mic_transfer
                0x0102d88c                usb_mic_ladc_input
 .rodata        0x0102d8e8       0x80 code\libs\usb.a(usb_slave_mic_adc.o)
                0x0102d8e8                AnsiChar_data
 .text          0x0102d968      0x14c code\libs\usb.a(usb_slave_spk_dac.o)
                0x0102d968                get_obuf_len
                0x0102d978                dac_write_obuf
                0x0102d98c                usb_speaker_transfer
                0x0102da44                usb_spk_syn_init
                0x0102daa8                usb_slave_test
 .text          0x0102dab4      0x114 code\libs\usb.a(usbs_ctl_isr.o)
                0x0102dab4                USB_Slave_ep0_init
                0x0102dac8                USB_Slave_reg_init
                0x0102db20                usbs_ctl_isr
 .rodata        0x0102dbc8       0x30 code\libs\usb.a(usbs_ctl_isr.o)
                0x0102dbc8                usb_slave_init_table
 .text          0x0102dbf8       0x64 code\libs\usb.a(usb_class_setting_libs.o)
                0x0102dbf8                usb_class_setting
 .text          0x0102dc5c       0x88 code\libs\usb.a(usb_device_io.o)
                0x0102dc5c                usb_write_dev_null
                0x0102dc68                usb_read_dev_null
                0x0102dc74                usb_dev_init_null
                0x0102dc80                usb_get_dev_capacity_null
                0x0102dc8c                usb_wiat_sd_end_null
                0x0102dc98                usb_device_register
                0x0102dcbc                get_usb_device_registry_ptr
 .rodata        0x0102dce4       0x24 code\libs\usb.a(usb_device_io.o)
                0x0102dce4                SCSIInquiryData
 .text          0x0102dd08       0x90 code\libs\usb.a(usb_hid_key.o)
                0x0102dd08                usb_hid_key
                0x0102dd84                usb_hid_control
 .text          0x0102dd98      0x780 code\libs\usb.a(usb_slave_ctl.o)
                0x0102dd98                Clr_RxpktRdy
                0x0102ddb0                TxPktEnd
                0x0102ddb8                RxPktEnd
                0x0102ddd4                Set_Stall
                0x0102dde0                Ep0_Data_Tx
                0x0102de70                Ep0_Setup
                0x0102e37c                susb_msg_set_hook
                0x0102e38c                Ep0_Data_Rx
                0x0102e460                Ep0_control_transfer
 .rodata        0x0102e518       0x30 code\libs\usb.a(usb_slave_ctl.o)
 .text          0x0102e548      0x97c code\libs\usb.a(usb_slave_scsi_libs.o)
                0x0102e548                STALL_INEP
                0x0102e5b0                STALL_OUTEP
                0x0102e624                MCU_SRAMToUSB
                0x0102e6d4                MCU_USBToSRAM
                0x0102e7ac                Unknow
                0x0102e7e4                RBC_CheckSDStatus
                0x0102e90c                StopStartUnit
                0x0102e93c                GetCBW
                0x0102ea08                USB_MassStorage
 .text          0x0102eec4      0x234 code\libs\usb.a(usb_slave_sd.o)
                0x0102eec4                usb_read_device
                0x0102f008                usb_write_device
 .text          0x0102f0f8       0x48 code\libs\usb.a(usb_device_status.o)
                0x0102f0f8                usb_slave_is_online
                0x0102f10c                usb_device_status
 .text          0x0102f140       0x14 code\libs\usb.a(usb_slave_online.o)
                0x0102f140                usb_slave_online_check
 .text          0x0102f154      0x21c code\libs\usb.a(mango_dev_usb.o)
                0x0102f154                usb_var_api
                0x0102f188                usb_host_detect_api
                0x0102f1c0                usb_host_write_api
                0x0102f21c                usb_host_read_api
                0x0102f27c                usb_host_unmount_api
                0x0102f280                usb_host_mount_api
                0x0102f2bc                usb_power_api
                0x0102f2d8                usb_ioctl_api
                0x0102f31c                dev_reg_usb
                0x0102f338                USB_DELAY_10MS
 .rodata        0x0102f370       0x34 code\libs\usb.a(mango_dev_usb.o)
 .text          0x0102f3a4        0xc code\libs\usb.a(usb_global_var.o)
                0x0102f3a4                usb_mem_pfree
 .text          0x0102f3b0       0xd4 code\libs\usb.a(usb_host_mount.o)
                0x0102f3b0                usb_host_mount
 .text          0x0102f484       0xf8 code\libs\usb.a(usb_host_read.o)
                0x0102f484                usb_host_read
 .text          0x0102f57c       0x50 code\libs\usb.a(usb_host_unmount.o)
                0x0102f57c                usb_host_unmount
 .text          0x0102f5cc       0x94 code\libs\usb.a(usb_host_write.o)
                0x0102f5cc                usb_host_write
 .text          0x0102f660       0xbc code\libs\usb.a(usb_read_remain.o)
                0x0102f660                usb_read_remain
 .text          0x0102f71c       0x34 code\libs\usb.a(usb_suspend.o)
                0x0102f71c                usb_suspend
 .text          0x0102f750      0x1b4 code\libs\usb.a(USB_Host_dev_enum_libs.o)
                0x0102f750                USB_Host_dev_enum
 .rodata        0x0102f904       0x2e code\libs\usb.a(USB_Host_dev_enum_libs.o)
                0x0102f904                USB_endpoint_init_table1
 *fill*         0x0102f932        0x2 00
 .text          0x0102f934       0xa4 code\libs\usb.a(usb_control_transfers.o)
                0x0102f934                usb_control_transfers
 .text          0x0102f9d8      0x1a4 code\libs\usb.a(usb_ctlXfer.o)
                0x0102f9d8                usb_ctlXfer
 .text          0x0102fb7c       0x8c code\libs\usb.a(usb_descriptor_parser.o)
                0x0102fb7c                usb_descriptor_parser
 .text          0x0102fc08       0xf4 code\libs\usb.a(usb_bulk_only_receive.o)
                0x0102fc08                usb_bulk_only_receive
 .text          0x0102fcfc      0x10c code\libs\usb.a(usb_bulk_only_transfer.o)
                0x0102fcfc                usb_bulk_only_transfer
 .text          0x0102fe08       0xc0 code\libs\usb.a(usb_ufi_read10.o)
                0x0102fe08                usb_ufi_read10
 .text          0x0102fec8       0x90 code\libs\usb.a(usb_ufi_write10.o)
                0x0102fec8                usb_ufi_write10
 .text          0x0102ff58      0x168 code\libs\usb.a(usbh_msd_enum.o)
                0x0102ff58                usbh_msd_enum
 .text          0x010300c0       0x74 code\libs\usb.a(usbh_msd_parser.o)
                0x010300c0                usbh_msd_parser
 .text          0x01030134       0xbc code\libs\usb.a(usb_host_reg_libs.o)
                0x01030134                usb_host_init
                0x01030168                usb_host_reset
                0x010301c0                usb_host_reset1
 .text          0x010301f0       0x68 code\libs\usb.a(usb_reg.o)
                0x010301f0                delay_nop
                0x010301fc                read_usb_reg
                0x01030230                write_usb_reg
 .text          0x01030258       0xcc code\libs\usb.a(usb_host_status.o)
                0x01030258                usb_get_capacity
                0x01030268                usb_is_online
                0x01030278                usb_host_status
                0x010302b8                usb_host_status_set
 .text          0x01030324      0x248 code\libs\usb.a(usb_online.o)
                0x01030324                set_usb_io1
                0x01030370                set_usb_io
                0x0103038c                usb_online
                0x010304f8                usb_online_status_save
                0x01030558                usb_online_check
 .text          0x0103056c        0x0 code\libs\usb.a(Descriptor.o)
 .rodata        0x0103056c      0x28d code\libs\usb.a(Descriptor.o)
                0x0103056c                gabSCSIModeSense
                0x01030570                bAudioVol
                0x01030578                bMicAudioVol
                0x01030580                sDeviceDescriptor
                0x01030592                sConfigDescriptor
                0x0103059b                sMassDescriptor
                0x010305b2                sAduioDescriptor
                0x0103066a                sSpeakerDescriptor
                0x010306cf                sMicDescriptor
                0x01030733                sHIDDescriptor
                0x0103074c                sHIDReport
                0x0103077f                LANGUAGE_STR
                0x01030783                IMANUFACTURE_STR
                0x010307b3                IPRODUCT_STR
                0x010307cd                ISERIAL_NUMBER
                0x010307df                IOTHER_STRING
 *fill*         0x010307f9        0x3 00
 .text          0x010307fc      0x1c8 code\libs\usb.a(set_descriptor_libs.o)
                0x010307fc                set_descriptor
 .text          0x010309c4       0x38 code\libs\usb.a(usb_host_timeout.o)
                0x010309c4                usb_host_timeout
 .text          0x010309fc       0xa8 code\libs\usb.a(get_max_LUN.o)
                0x010309fc                get_max_LUN
 .text          0x01030aa4       0x3c code\libs\usb.a(usb_host_clear_feature.o)
                0x01030aa4                usb_host_clear_feature
 .text          0x01030ae0       0x48 code\libs\usb.a(CBW_init.o)
                0x01030ae0                CBW_init
 .text          0x01030b28       0xdc code\libs\usb.a(usb_bulk_only_send.o)
                0x01030b28                usb_bulk_only_send
 .text          0x01030c04      0x164 code\libs\usb.a(usb_host_scsi_cmd_libs.o)
                0x01030c04                USB_UFI_Inquiry
                0x01030c54                USB_UFI_Test_unit_ready
                0x01030c90                USB_UFI_Request_sense
                0x01030ce0                USB_UFI_Ready_capacity
 .text          0x01030d68      0x440 code\libs\librtos_bt15.a(os_core.o)
                0x01030d68                OSInit
                0x01030dd0                OSSchedLock
                0x01030e00                OSMMUInit
                0x01030e3c                OSVersion
                0x01030e48                OS_EventTaskRdy
                0x01030eb8                OS_EventTaskWait
                0x01030ee8                OS_EventTO
                0x01030f0c                OS_ExchangePrio
                0x01031000                OS_Sched
                0x01031074                OSTimeTick
                0x01031124                OSStart
                0x01031170                OSSchedUnlock
 .rodata.str1.4
                0x010311a8        0x5 code\libs\librtos_bt15.a(os_core.o)
                                  0x8 (size before relaxing)
 *fill*         0x010311ad        0x3 00
 .text          0x010311b0      0x260 code\libs\librtos_bt15.a(os_mutex.o)
                0x010311b0                OSMutexAccept
                0x010311ec                OSMutexCreate
                0x01031210                OSMutexDel
                0x010312a4                OSMutexPend
                0x01031390                OSMutexPost
 .text          0x01031410      0x190 code\libs\librtos_bt15.a(os_sem.o)
                0x01031410                OSSemAccept
                0x01031430                OSSemCreate
                0x01031448                OSSemDel
                0x010314b4                OSSemPend
                0x01031528                OSSemPost
                0x01031578                OSSemSet
 .text          0x010315a0      0x974 code\libs\librtos_bt15.a(os_task.o)
                0x010316e4                OSGetTaskTcb
                0x01031794                OSTaskChangePrio
                0x01031834                OSTaskCreate
                0x01031910                OSTaskQAccept
                0x01031958                OSTaskQPend
                0x010319f0                __OSTaskQPost
                0x01031af0                __OSTaskQPostWait
                0x01031b30                OSTaskQPostMsg
                0x01031b4c                OSTaskQPostEvent
                0x01031b68                OSTaskQPost
                0x01031b84                OSTaskQFlush
                0x01031bb4                __OSTaskQFlushMsg
                0x01031bbc                __OSTaskQFlushEvent
                0x01031bc4                OSTaskQPostFront
                0x01031cc4                OSTaskQQuery
                0x01031d00                OSTaskDel
                0x01031dcc                OSTaskDelReq
                0x01031e24                OSTaskDelRes
                0x01031e50                OSTaskResume
                0x01031eb8                OSTaskSuspend
 .text          0x01031f14       0xdc code\libs\librtos_bt15.a(os_time.o)
                0x01031f14                OSTimeDly
                0x01031f54                OSTimeDlyResume
                0x01031fd0                OSTimeGet
                0x01031fe0                OSTimeSet
 .text          0x01031ff0      0x12c code\libs\librtos_bt15.a(os_cpu.o)
                0x0103209e                OS_HighPrio
                0x010320b2                OSCtxSw
 .text          0x0103211c       0x88 code\libs\librtos_bt15.a(os_cpu_c.o)
                0x0103211c                OSTaskSwitchHook
                0x01032150                OSInitHookBegin
                0x0103215c                OSInitHookEnd
                0x01032168                OSTaskStkInit
 .text          0x010321a4     0x1e9c code\libs\lib_cache_vm_bt15.a(vm.o)
                0x01032424                cache_read
                0x01032c60                _vm_dec_write
                0x01033674                vm_init
                0x01033b58                vm_eraser
                0x01033c70                vm_open
                0x01033d84                vm_close
                0x01033e5c                vm_write
                0x01033f94                vm_read
                0x01033ffc                vm_status
 .text          0x01034040      0x3a0 code\libs\sydf_ac46.a(syd_file.o)
                0x01034040                set_sydf_header_base
                0x01034050                move_window_syd
                0x01034088                phy_syd_read
                0x010340ec                read_flashheader
                0x01034174                read_fileheader
                0x01034190                sydf_openbyname
                0x01034228                sydf_openbyindex
                0x010342a8                check_syd
                0x010342d4                syd_api_init
                0x01034300                syd_get_file_total
                0x01034360                get_free_flash_addr
                0x01034374                sydf_read
                0x010343b4                sydf_seek
 .text          0x010343e0      0x578 code\libs\lib_fm_resample.a(FM_resample.o)
                0x01034948                get_fmRS_ops
 .rodata        0x01034958      0x144 code\libs\lib_fm_resample.a(FM_resample.o)
                0x01034958                fm_rs_sample_coff1
                0x01034a78                fm_rs_sample_coff2
                0x01034a8c                FM_resample_Obj
 .text          0x01034a9c      0x5e8 code\libs\lib_fm_driver.a(fm_digital.o)
                0x01034a9c                fm_coef_initial
                0x01034ac4                fmrx_digital_init
                0x01034bec                set_fm_printf
                0x01034bfc                set_fm_osc
                0x01034c20                set_fm_scan
                0x01034c44                fmrx_initial
                0x01034db4                fmrx_freq_analy
                0x01034eec                fmrx_delay
                0x01034f38                fm_pf_function
                0x01034f58                fm_lofc_svr
                0x01035048                fm_svr
 .rodata        0x01035084     0x4e18 code\libs\lib_fm_driver.a(fm_digital.o)
                0x01035084                fm_const_data
 .text          0x01039e9c      0x4fc code\libs\lib_fm_driver.a(fmrx_driver.o)
                0x01039e9c                fmrx_get_busy
                0x01039eac                fmrx_send_cmd
                0x01039ed0                fmrx_set_freq
                0x0103a0c0                get_cur_fre_info
                0x0103a0d0                fmrx_set_fft
                0x0103a14c                fmrx_set_stereo
                0x0103a1b0                fmrx_set_abw
                0x0103a228                fmrx_get_rssi
                0x0103a280                fmrx_get_pilot
                0x0103a2cc                fmrx_get_adcs
                0x0103a324                fmrx_set_amute
                0x0103a38c                fmrx_get_avalid
 .rodata.str1.4
                0x0103a398       0x50 code\libs\lib_fm_driver.a(fmrx_driver.o)
 .text          0x0103a3e8      0x524 code\libs\lib_fm_driver.a(fm_analog.o)
                0x0103a3e8                fm_lofc_wait_clr
                0x0103a430                fm_bank_scan
                0x0103a584                fm_analog_init
                0x0103a6e8                fmrx_anlog_freq_set
 .text          0x0103a90c        0x0 code\libs\lib_fm_driver.a(fm_coef.o)
 .rodata        0x0103a90c      0x458 code\libs\lib_fm_driver.a(fm_coef.o)
                0x0103a90c                fm_config0
                0x0103aa0c                fm_config1
                0x0103aaa4                hwfe_if200k
                0x0103ab4e                hwfe_if175k
                0x0103abf8                hwfe_if125k
                0x0103aca2                hwfe_tb1
 .text          0x0103ad64       0xd0 code\libs\libBtCalling.a(BT_Calling.o)
                0x0103ad64                BlueTooth_Calling_QueryBufSize
                0x0103ad84                BlueTooth_Calling_init
                0x0103addc                BlueTooth_Calling_run
                0x0103ae1c                BlueTooth_Calling_GetAGC_Var
                0x0103ae28                BlueTooth_Calling_eq_debug
 .text          0x0103ae34      0x814 code\libs\libBtCalling.a(aecmain.o)
                0x0103ae34                jlaecv2_getELER
                0x0103ae40                jlaecv2_QuaryBufSize
                0x0103ae4c                jlaecv2_init
                0x0103ae5c                jlaecv2_ARS
                0x0103b240                jlaecv2_main
 .rodata        0x0103b648       0x44 code\libs\libBtCalling.a(aecmain.o)
 .text          0x0103b68c      0xeb0 code\libs\libBtCalling.a(ns_core.o)
                0x0103b7cc                WebRtcNs_set_policy_core
                0x0103b820                WebRtcNs_InitCore
                0x0103b8fc                WebRtcNs_NoiseEstimation
                0x0103baac                WebRtcNs_ComputeSpectralFlatness
                0x0103bab8                WebRtcNs_ComputeSpectralDifference
                0x0103bac4                WebRtcNs_SpeechNoiseProb
                0x0103be98                WebRtcNs_ProcessCore_Freq
                0x0103c338                WebRtcNs_ProcessCore_Freq_tst
 .rodata        0x0103c53c      0x3ac code\libs\libBtCalling.a(ns_core.o)
 .text          0x0103c8e8     0x1484 code\libs\libBtCalling.a(aec_core.o)
                0x0103c8e8                WebRtcAec_InitAec
                0x0103c9cc                FilterFar
                0x0103cadc                FilterAdaptation
                0x0103cd2c                TimeToFrequency_int
                0x0103cd70                OverdriveAndSuppress
                0x0103ced4                ComfortNoise
                0x0103cf80                QuickSort
                0x0103cfe0                NonLinearProcessing
                0x0103dc0c                fixlog2
                0x0103dc40                cont_ad_frame_pow
                0x0103dcec                find_thresh
 .rodata        0x0103dd6c      0x60c code\libs\libBtCalling.a(aec_core.o)
                0x0103dd6c                sqrthanning_int
 .text          0x0103e378      0x9f4 code\libs\libBtCalling.a(aec_rdft.o)
                0x0103eb2c                aec_rdft_forward_128_int
                0x0103ec44                aec_rdft_inverse_128_int
 .rodata        0x0103ed6c      0x200 code\libs\libBtCalling.a(aec_rdft.o)
                0x0103ed6c                rdft_w_int
 .text          0x0103ef6c      0x684 code\libs\lib_usb_syn.a(usb_syn.o)
                0x0103f5d0                get_adc_usbsyn_ops
                0x0103f5e0                get_dac_usbsyn_ops
 .rodata        0x0103f5f0       0xb0 code\libs\lib_usb_syn.a(usb_syn.o)
                0x0103f5f0                syn_sample_coff
                0x0103f680                adc_usbsyn_ops
                0x0103f694                dac_usbsyn_ops
 .text          0x0103f6a0      0xbb8 code\libs\libbt_bt15.a(a2dp.o)
                0x0103f728                a2dp_resume
                0x0103fa54                dac_sync_output
                0x0103fa5c                mute_resourse_a2dp_close
                0x0103fab0                get_a2dp_aac_info
                0x0103fac4                a2dp_media_channel
                0x0103fad4                check_a2dp_channel
                0x0103faf8                a2dp_media_starting
                0x0103fb08                get_a2dp_decode_status
                0x0103fb20                __set_a2dp_music_eq
                0x0103fb3c                a2dp_media_stop
                0x0103fba0                a2dp_suspend
                0x0103fbcc                sync_init
                0x0103fc34                mute_resourse_a2dp_open
                0x0103fc90                a2dp_get_sync_buf
                0x0103fca0                get_a2dp_cbuf_busy_flag
                0x0103fcb0                release_a2dp_cbuf
                0x0103fccc                a2dp_channel_close
                0x0103fd48                a2dp_accept_channel_open
                0x0103fdc0                a2dp_init_channel_open
                0x0103ffb4                get_sbc_decode_simplerate
                0x0103ffc4                get_a2dp_role
                0x0103ffd4                a2dp_init
                0x010400ac                clear_AAC_format
                0x010400bc                a2dp_release
                0x010400e0                a2dp_add_sep
                0x01040134                a2dp_get_status
                0x01040144                a2dp_connection
                0x01040178                user_a2dp_disconnect
                0x010401a8                get_a2dp_media_channel
                0x010401b8                a2dp_send_sbc_handle_register
                0x010401c8                a2dp_send_sbc_init
                0x01040234                delete_sbc_time
                0x01040240                a2dp_disconnect
 .rodata.str1.4
                0x01040258       0x6b code\libs\libbt_bt15.a(a2dp.o)
                                 0x74 (size before relaxing)
 *fill*         0x010402c3        0x1 00
 .rodata        0x010402c4       0x34 code\libs\libbt_bt15.a(a2dp.o)
                0x010402c4                a2dp_sbc
                0x010402ca                a2dp_mpeg_acc
 .text          0x010402f8      0x5a0 code\libs\libbt_bt15.a(avctp.o)
                0x01040658                avctp_init
                0x010406c8                avctp_release
                0x010406f8                avctp_try_send
                0x0104076c                avctp_hook_a2dp_connection_changed
                0x010407b0                hook_a2dp_status_changed
                0x010407f8                avctp_send_response
                0x01040850                avctp_connection
                0x01040884                avctp_disconnect
 .rodata        0x01040898        0x8 code\libs\libbt_bt15.a(avctp.o)
 .text          0x010408a0      0x5b0 code\libs\libbt_bt15.a(avctp_user.o)
                0x010408a0                user_deal_income_avctp_rsp
                0x010408ac                tester_hook_avctp_deal_register
                0x010408bc                user_deal_income_avctp_opid
                0x01040900                user_cmd_ctrl_init
                0x0104092c                start_connection
                0x0104094c                user_send_cmd_prepare
                0x01040a28                usre_cmd_timeout_check
                0x01040af8                user_operation_control
                0x01040d5c                spp_accel_release
                0x01040da4                spp_suspend
                0x01040dd4                spp_resume
                0x01040e00                get_curr_channel_state
                0x01040e10                get_last_call_type
                0x01040e20                get_call_status
                0x01040e30                get_hci_connect_handle
                0x01040e40                get_current_search_index
 .rodata        0x01040e50       0x88 code\libs\libbt_bt15.a(avctp_user.o)
 .text          0x01040ed8      0xadc code\libs\libbt_bt15.a(avdtp.o)
                0x01041048                avdtp_retry_send
                0x01041074                avdtp_int_role_init
                0x01041088                clear_int_handl_ptr
                0x010410b4                avdtp_timer_out_init
                0x010410d4                finalize_discovery
                0x0104111c                avdtp_req_timeout
                0x01041134                avdtp_discover_req
                0x0104115c                avdtp_start_req
                0x010411b0                avdtp_suspend_req
                0x010411f0                avdtp_discover_response
                0x010412b8                avdtp_get_capabilities_response
                0x010413b0                avdtp_set_configuation_response
                0x010413ec                avdtp_open_response
                0x01041418                avdtp_start_response
                0x0104143c                avdtp_suspend_response
                0x01041460                avdtp_parse_response
                0x01041500                avdtp_packet_handler
 .rodata        0x010419b4       0x58 code\libs\libbt_bt15.a(avdtp.o)
 .text          0x01041a0c      0x450 code\libs\libbt_bt15.a(a2dp_media_file.o)
                0x01041ac0                bt_set_music_sr
                0x01041ae0                bt_sup_dec_phy_op
                0x01041b28                a2dp_media_file_write
                0x01041ba4                a2dp_decode_init
                0x01041ce8                decoder_release
                0x01041d48                a2dp_media_file_open
                0x01041dd8                a2dp_media_file_close
                0x01041e20                a2dp_music_eq
                0x01041e44                sbc_decode_get_inbuf_len
                0x01041e50                sbc_decode_get_inbuf_totlen
 .rodata.str1.4
                0x01041e5c        0xd code\libs\libbt_bt15.a(a2dp_media_file.o)
                                 0x24 (size before relaxing)
 *fill*         0x01041e69        0x3 00
 .rodata        0x01041e6c        0x8 code\libs\libbt_bt15.a(a2dp_media_file.o)
 .text          0x01041e74      0x110 code\libs\libbt_bt15.a(h4_transport.o)
                0x01041f30                h4_delete_loop
                0x01041f4c                h4_upload_wakeup
                0x01041f74                hci_transport_h4_instance
 .rodata.str1.4
                0x01041f84       0x30 code\libs\libbt_bt15.a(h4_transport.o)
 .rodata        0x01041fb4       0x1c code\libs\libbt_bt15.a(h4_transport.o)
 .text          0x01041fd0      0x498 code\libs\libbt_bt15.a(nfc_blueteeth.o)
                0x01041fd0                NFC_Write_Byte
                0x01041fdc                NFC_Read_Byte
                0x01041fe8                Clr_DataCache
                0x01042004                Sens_Handle
                0x01042034                Read_Handle
                0x010420e4                Write_Handle
                0x010420fc                Sector_Handle
                0x0104210c                Create_UserID_Value
                0x01042154                Type2_Data_Init
                0x010422e8                nfc_isr
                0x01042348                NfcBT_All_Init
                0x01042418                nfc_init
                0x01042444                nfc_close
 .rodata        0x01042468       0x2c code\libs\libbt_bt15.a(nfc_blueteeth.o)
 .text          0x01042494     0x1910 code\libs\libbt_bt15.a(hci.o)
                0x010425c8                connection_for_handle
                0x010425ec                connection_for_address
                0x0104268c                hci_authentication_active_for_handle
                0x010426b4                hci_drop_link_key_for_bd_addr
                0x010426cc                hci_number_outgoing_packets
                0x010426e8                hci_number_free_acl_slots
                0x01042714                hci_can_send_packet_now
                0x01042744                hci_send_acl_packet
                0x010427b4                hci_usable_acl_packet_types
                0x010427c4                hci_get_outgoing_acl_packet_buffer
                0x010427d4                hci_max_acl_data_packet_length
                0x010427e4                get_remote_test_flag
                0x010427f4                clear_remote_test_flag
                0x01042804                hci_register_packet_handler
                0x01042814                hci_init
                0x010428d8                hci_change_dev_class
                0x010428e8                hci_release
                0x01042910                hci_emit_state
                0x0104295c                hci_emit_connection_complete
                0x010429c4                hci_send_cmd_packet
                0x01042b5c                hci_send_cmd
                0x01042b90                hci_emit_disconnection_complete
                0x01042bec                hci_emit_l2cap_check_timeout
                0x01042c38                hci_connection_timeout_handler
                0x01042c8c                hci_emit_nr_connections_changed
                0x01042d30                hci_run
                0x01043008                hci_connectable_control
                0x0104302c                hci_emit_hci_open_failed
                0x01043070                hci_power_control
                0x0104317c                hci_close
                0x010431b8                hci_emit_system_bluetooth_enabled
                0x01043200                hci_emit_remote_name_cached
                0x01043274                hci_emit_discoverable_enabled
                0x010432bc                hci_discoverable_control
                0x010432e4                hci_lookup_connection
                0x01043308                sco_connection_disconnect
                0x0104333c                sco_connection_setup
                0x01043390                hci_connection_disconnect
                0x010433bc                hci_set_sniff_mode
                0x0104341c                hci_inquiry_start
                0x01043440                hci_busy
                0x01043460                is_hci_stack_active
                0x01043474                packet_handler
                0x01043d4c                hci_lookup_connection_disconnect
                0x01043d84                hci_read_remote_name
 .rodata.str1.4
                0x01043da4       0x35 code\libs\libbt_bt15.a(hci.o)
                                 0x38 (size before relaxing)
 *fill*         0x01043dd9        0x3 00
 .rodata        0x01043ddc       0x58 code\libs\libbt_bt15.a(hci.o)
 .text          0x01043e34      0x1d0 code\libs\libbt_bt15.a(hci_cmds.o)
                0x01043e34                hci_create_cmd_internal
                0x01043ff0                hci_create_cmd
 .rodata.str1.4
                0x01044004       0x63 code\libs\libbt_bt15.a(hci_cmds.o)
                                 0x78 (size before relaxing)
 *fill*         0x01044067        0x1 00
 .rodata        0x01044068      0x160 code\libs\libbt_bt15.a(hci_cmds.o)
                0x01044068                hci_inquiry
                0x01044070                hci_inquiry_cancel
                0x01044078                hci_create_connection
                0x01044080                hci_disconnect
                0x01044088                hci_create_connection_cancel
                0x01044090                hci_accept_connection_request
                0x01044098                hci_reject_connection_request
                0x010440a0                hci_link_key_request_reply
                0x010440a8                hci_link_key_request_negative_reply
                0x010440b0                hci_pin_code_request_reply
                0x010440b8                hci_pin_code_request_negative_reply
                0x010440c0                hci_authentication_requested
                0x010440c8                hci_set_connection_encryption
                0x010440d0                hci_remote_name_request
                0x010440d8                hci_setup_sco_connection
                0x010440e0                hci_accept_sco_connection_request
                0x010440e8                hci_io_capability_request_reply
                0x010440f0                hci_user_confirmation_request_reply
                0x010440f8                hci_sniff_mode
                0x01044100                hci_exit_sniff_mode
                0x01044108                hci_switch_role_command
                0x01044110                hci_write_default_link_policy_settings
                0x01044118                hci_set_event_mask
                0x01044120                hci_reset
                0x01044128                hci_delete_stored_link_key
                0x01044130                hci_write_local_name
                0x01044138                hci_write_page_timeout
                0x01044140                hci_write_scan_enable
                0x01044148                HCI_Write_Page_Scan_Activity
                0x01044150                hci_write_inquiry_scan_activity
                0x01044158                hci_write_authentication_enable
                0x01044160                hci_write_class_of_device
                0x01044168                hci_read_voice_setting
                0x01044170                hci_write_voice_setting
                0x01044178                hci_flow_control_enable
                0x01044180                hci_host_buffer_size
                0x01044188                hci_host_num_of_completed
                0x01044190                hci_write_page_scan_type
                0x01044198                hci_write_extended_inquiry_response
                0x010441a0                hci_write_simple_pairing_mode
                0x010441a8                hci_read_local_oob_data
                0x010441b0                hci_read_buffer_size
                0x010441b8                hci_read_bd_addr
                0x010441c0                hci_write_local_address
 .text          0x010441c8       0x30 code\libs\libbt_bt15.a(hci_dump.o)
                0x010441c8                hci_dump_open
                0x010441d4                hci_dump_packet
                0x010441e0                hci_dump_log
                0x010441ec                hci_dump_close
 .text          0x010441f8     0x1088 code\libs\libbt_bt15.a(hfp_profile.o)
                0x01044354                hfp_profile_init
                0x010443bc                hfp_profile_release
                0x010443f0                hfp_phone_control
                0x01044468                hfp_speak_gain_control
                0x01044570                hfp_mic_gain_control
                0x0104467c                hfp_send_dial_cmd
                0x010446f4                get_battery_value_register
                0x01044704                send_battery_level
                0x01044850                is_hfp_connect_finish
                0x01044868                check_support_feature_ag
                0x01044880                hfp_packet_handler
                0x010451f4                hfp_suspend
                0x0104522c                hfp_resume
 .rodata.str1.4
                0x01045280       0xaf code\libs\libbt_bt15.a(hfp_profile.o)
                                 0xb8 (size before relaxing)
 *fill*         0x0104532f        0x1 00
 .rodata        0x01045330      0x2d0 code\libs\libbt_bt15.a(hfp_profile.o)
 .text          0x01045600      0x56c code\libs\libbt_bt15.a(hid.o)
                0x01045750                hid_key_pass_check_handle_register
                0x01045760                hid_android_shutter
                0x01045778                hid_ios_shutter
                0x01045794                hid_both_key
                0x010457c8                hid_clear_parm
                0x010457dc                hid_connect
                0x01045a5c                hid_disconnect
                0x01045ac4                hid_init
                0x01045b44                hid_release
 .rodata        0x01045b6c       0x1e code\libs\libbt_bt15.a(hid.o)
 *fill*         0x01045b8a        0x2 00
 .text          0x01045b8c     0x150c code\libs\libbt_bt15.a(l2cap.o)
                0x01045c10                l2cap_init
                0x01045c50                l2cap_release
                0x01045c5c                l2cap_register_packet_handler
                0x01045c6c                l2cap_dispatch
                0x01045ddc                l2cap_emit_credits
                0x01045e44                l2cap_block_new_credits
                0x01045e54                l2cap_hand_out_credits
                0x01045ea8                l2cap_get_channel_for_local_cid
                0x01045ecc                l2cap_can_send_packet_now
                0x01045ef4                l2cap_get_remote_mtu_for_local_cid
                0x01045f10                l2cap_send_signaling_packet
                0x01045f54                l2cap_get_outgoing_buffer
                0x01045f64                l2cap_send_prepared
                0x01045fe4                l2cap_send_prepared_connectionless
                0x0104604c                l2cap_send_internal
                0x0104608c                l2cap_send_connectionless
                0x010460d0                l2cap_max_mtu
                0x010460e0                l2cap_signaling_handle_configure_request
                0x01046174                l2cap_can_close_handle_now
                0x01046218                l2cap_run
                0x01046574                l2cap_decline_connection_internal
                0x010465a4                l2cap_accept_connection_internal
                0x010465c8                l2cap_event_handler
                0x01046874                l2cap_disconnect_internal
                0x01046890                l2cap_create_channel_internal
                0x0104696c                l2cap_signaling_handler_channel
                0x01046ac8                l2cap_signaling_handler_dispatch
                0x01046ca0                l2cap_acl_handler
                0x01046d7c                l2cap_register_service_internal
                0x01046ddc                l2cap_unregister_service_internal
                0x01046e28                l2cap_close_connection
                0x01046e80                l2cap_register_fixed_channel
                0x01046eac                l2cap_search_channel
                0x01046eb8                l2cap_search_channel_exist_via_psm
                0x01046f00                l2cap_get_btaddr_via_local_cid
                0x01046f18                l2cap_get_hci_handle_via_psm
                0x01046f44                l2cap_create_next_channel
                0x01046fec                l2cap_sent_connection_request_via_psm
 .rodata        0x01047098       0x30 code\libs\libbt_bt15.a(l2cap.o)
 .text          0x010470c8      0x114 code\libs\libbt_bt15.a(l2cap_signaling.o)
                0x010470c8                l2cap_next_sig_id
                0x010470f0                l2cap_next_local_cid
                0x01047104                l2cap_create_signaling_internal
 .rodata.str1.4
                0x010471dc       0x16 code\libs\libbt_bt15.a(l2cap_signaling.o)
                                 0x20 (size before relaxing)
 *fill*         0x010471f2        0x2 00
 .rodata        0x010471f4       0x2c code\libs\libbt_bt15.a(l2cap_signaling.o)
 .text          0x01047220       0x8c code\libs\libbt_bt15.a(linked_list.o)
                0x01047220                linked_list_empty
                0x0104722c                linked_list_get_last_item
                0x01047240                linked_list_add
                0x0104725c                linked_list_add_tail
                0x01047274                linked_list_remove
                0x01047294                linked_item_set_user
                0x010472a0                linked_item_get_user
 .text          0x010472ac     0x1838 code\libs\libbt_bt15.a(rfcomm.o)
                0x0104815c                rfcomm_channel_for_rfcomm_cid
                0x01048180                rfcomm_channel_packet_handler
                0x010482ec                rfcomm_packet_handler
                0x010486e4                rfcomm_init
                0x01048700                rfcomm_release
                0x0104870c                rfcomm_register_packet_handler
                0x0104871c                rfcomm_send_internal
                0x01048798                rfcomm_create_channel2
                0x01048848                rfcomm_create_channel_with_initial_credits_internal
                0x0104886c                rfcomm_create_channel_internal
                0x01048890                rfcomm_disconnect_internal
                0x010488ac                rfcomm_register_service2
                0x01048948                rfcomm_register_service_with_initial_credits_internal
                0x0104896c                rfcomm_register_service_internal
                0x0104898c                rfcomm_unregister_service_internal
                0x010489d8                rfcomm_accept_connection_internal
                0x01048a1c                rfcomm_decline_connection_internal
                0x01048a48                rfcomm_grant_credits
                0x01048a80                rfcomm_close_connection
                0x01048ad8                app_rfcomm_packet_handler
 .rodata        0x01048ae4       0x30 code\libs\libbt_bt15.a(rfcomm.o)
 .text          0x01048b14      0x900 code\libs\libbt_bt15.a(sdp.o)
                0x01048b14                sdp_init
                0x01048b74                sdp_register_packet_handler
                0x01048b84                sdp_get_service_record_handle
                0x01048bd0                sdp_get_record_for_handle
                0x01048bf4                sdp_create_service_record_handle
                0x01048c24                sdp_register_service_internal
                0x01048ccc                sdp_unregister_service_internal
                0x01048d08                sdp_unregister_services_for_connection
                0x01048d30                sdp_create_error_response
                0x01048d78                sdp_handle_service_search_request
                0x01048f00                sdp_handle_service_attribute_request
                0x01049064                sdp_handle_service_search_attribute_request
                0x01049268                sdp_try_respond
                0x0104938c                sdp_release
                0x010493b0                sdp_suspend
                0x010493d8                sdp_resume
 .rodata.str1.4
                0x01049414       0x35 code\libs\libbt_bt15.a(sdp.o)
                                 0x38 (size before relaxing)
 *fill*         0x01049449        0x3 00
 .text          0x0104944c      0x324 code\libs\libbt_bt15.a(sdp_master.o)
                0x010496f8                sdp_master_init
                0x01049714                launch_initiative_connection
                0x01049744                sdp_get_test_link_type_register
                0x01049754                sdp_master_channel_disconnect
 .text          0x01049770     0x1534 code\libs\libbt_bt15.a(sdp_util.o)
                0x01049830                sdp_normalize_uuid
                0x01049858                de_get_size_type
                0x01049864                de_get_element_type
                0x01049870                de_get_header_size
                0x0104988c                de_get_data_size
                0x010498e8                de_get_len
                0x01049a10                de_get_normalized_uuid
                0x01049a78                de_store_descriptor_with_len
                0x01049aac                de_create_sequence
                0x01049ac4                de_push_sequence
                0x01049aec                de_pop_sequence
                0x01049b18                de_add_number
                0x01049b88                de_add_data
                0x01049bf0                de_add_uuid128
                0x01049c30                sdp_add_attribute
                0x01049c3c                sdp_attribute_list_constains_id
                0x01049ddc                sdp_append_attributes_in_attributeIDList
                0x01049e0c                sdp_filter_attributes_in_attributeIDList
                0x01049e44                spd_get_filtered_size
                0x01049e68                sdp_get_attribute_value_for_attribute_id
                0x01049e8c                sdp_set_attribute_value_for_attribute_id
                0x01049eb4                sdp_record_contains_UUID128
                0x01049ed8                sdp_traversal_match_pattern
                0x01049f60                sdp_record_matches_service_search_pattern
                0x01049f84                de_dump_data_element
                0x01049fa8                sdp_create_a2dp_service
                0x0104a144                sdp_create_avctp_service
                0x0104a270                sdp_create_hfp_service
                0x0104a414                sdp_create_spp_service
                0x0104a588                sdp_create_hsp_service
                0x0104a728                sdp_create_hid_service
                0x0104aafc                sdp_service_record_init
 .rodata.str1.4
                0x0104aca4       0x60 code\libs\libbt_bt15.a(sdp_util.o)
 .rodata        0x0104ad04      0x1c8 code\libs\libbt_bt15.a(sdp_util.o)
                0x0104ad04                type_names
                0x0104ad28                sdp_bluetooth_base_uuid
                0x0104ad38                hid_descriptor
                0x0104adcc                hfp_ag_service_buffer
                0x0104ae4c                a2dp_source_service_buffer
 .text          0x0104aecc      0x134 code\libs\libbt_bt15.a(spp_profile.o)
                0x0104aecc                spp_data_deal_handle_register
                0x0104aedc                spp_data_try_send
                0x0104aefc                spp_packet_handler
 .text          0x0104b000      0x1dc code\libs\libbt_bt15.a(utils.o)
                0x0104b000                bt_store_16
                0x0104b01c                bt_store_32
                0x0104b054                net_store_16
                0x0104b070                net_store_32
                0x0104b0a8                bt_flip_addr
                0x0104b0dc                bd_addr_to_str
                0x0104b0ec                crc8
                0x0104b118                crc8_check
                0x0104b148                crc8_calc
                0x0104b158                crc16
                0x0104b184                bt_flip_access_addr
                0x0104b1b0                endian_change
 .rodata        0x0104b1dc      0x100 code\libs\libbt_bt15.a(utils.o)
 .text          0x0104b2dc      0xe78 code\libs\libbt_bt15.a(bt_configs.o)
                0x0104b2dc                __set_bt_mac_addr
                0x0104b2f8                hook_get_mac_addr
                0x0104b328                set_bt_name_len
                0x0104b35c                __set_hid_name
                0x0104b370                __set_host_name
                0x0104b384                hook_bt_name_len
                0x0104b394                hook_get_host_name
                0x0104b3b0                __set_pin_code
                0x0104b3dc                hook_get_pin_code
                0x0104b3ec                __get_syscfg_remote_db
                0x0104b414                __set_hook_bt_busy_cnt
                0x0104b424                hook_bt_busy_cnt
                0x0104b434                __set_auto_conn_device_num
                0x0104b444                get_auto_conn_device_num
                0x0104b454                __set_a2dp_music_ef_enable
                0x0104b47c                __get_a2dp_music_ef_enable
                0x0104b48c                __get_a2dp_music_EQ_init
                0x0104b49c                __set_super_timeout_value
                0x0104b4c0                hook_get_super_timeout
                0x0104b4e8                __set_test_masetr_enable
                0x0104b4f8                __bt_test_masetr_enable
                0x0104b508                __set_hid_auto_disconn_en
                0x0104b518                __bt_hid_auto_disconn_en
                0x0104b528                __bt_set_hid_independent_flag
                0x0104b538                __get_hid_independent_flag
                0x0104b548                __set_simple_pair_flag
                0x0104b558                hook_simple_pair_flag
                0x0104b568                __bt_set_music_back_play_flag
                0x0104b578                __music_background_play_en
                0x0104b588                __bt_set_a2dp_auto_play_flag
                0x0104b598                __bt_a2dp_auto_play_enable
                0x0104b5a8                __bt_set_music_data_drop_time
                0x0104b5cc                get_music_data_drop_time
                0x0104b5f4                __bt_set_display_battery_enable
                0x0104b610                get_display_battery_enable
                0x0104b620                __set_disable_sco_flag
                0x0104b630                get_disable_sco_flag
                0x0104b640                is_apple_device
                0x0104b67c                __inquiry_bt_manufacturer
                0x0104b698                get_bt_manufacturer
                0x0104b6a8                bt_pairing_handle_register
                0x0104b6b8                __set_first_time_conn_flag
                0x0104b6dc                get_first_time_conn_flag
                0x0104b6ec                bt_cfg_default_init
                0x0104b708                __bt_profile_enable
                0x0104b718                set_hid_independent_info
                0x0104b780                creat_random_number
                0x0104b838                fill_bt_configs
                0x0104b8ac                open_cfg_file
                0x0104b970                bt_info_init
                0x0104bed4                get_trim_i_dc
                0x0104bee4                get_trim_q_dc
                0x0104bef4                get_trim_bw_set
                0x0104bf04                bt_trim_init
                0x0104bf20                hook_bt_trim_check_crc
                0x0104bf4c                hook_bt_bw_set_backup
                0x0104bf5c                hook_bt_trim_backup
                0x0104bf94                hook_get_target_addr
                0x0104bfac                hook_get_mac_addr_tester
                0x0104bfc4                hook_get_target_name
                0x0104bfd4                hook_get_fre_offset_cnt
                0x0104bfec                hook_get_bt_hfp_mic_time
                0x0104bffc                hook_get_bt_hfp_active_time
                0x0104c00c                hook_get_bt_hfp_tone_time
                0x0104c01c                hook_get_bt_avctp_disable
                0x0104c02c                hook_get_bt_sbc_time
                0x0104c03c                hook_get_pin_code_tester
                0x0104c04c                bt_test_info_init
 .text          0x0104c154      0x518 code\libs\libbt_bt15.a(btstack.o)
                0x0104c268                btstack_wakeup
                0x0104c274                lmp_task_init
                0x0104c348                is_bt_stack_cannot_exist
                0x0104c368                set_bt_busy_flag
                0x0104c378                bt_busy_flag_counter
                0x0104c398                set_hfp_flag
                0x0104c3b4                clear_hfp_flag
                0x0104c3d0                get_suspend_flag
                0x0104c3fc                btstack_suspend
                0x0104c464                btstack_timer_schedule
                0x0104c4c4                background_suspend
                0x0104c504                no_background_suspend
                0x0104c54c                hook_btstack_suspend
                0x0104c588                hook_btstack_resume
                0x0104c5e4                delete_lmp_task
                0x0104c628                delete_stack_task
 .rodata.str1.4
                0x0104c66c       0x12 code\libs\libbt_bt15.a(btstack.o)
                                 0x54 (size before relaxing)
 *fill*         0x0104c67e        0x2 00
 .text          0x0104c680      0x41c code\libs\libbt_bt15.a(phone_talking.o)
                0x0104c680                bt_data_handle_register
                0x0104c690                bt_pcm_2_dac
                0x0104c728                pcm_send_data_handle_register
                0x0104c738                get_stop_send_pcm_handle_register
                0x0104c748                bt_pcm_alink_isr
                0x0104c880                bt_alink_init
                0x0104c908                bt_alink_close
                0x0104c918                set_mic_gain
                0x0104c938                phone_start_set_vol
                0x0104c998                phone_talking_init
                0x0104c9e4                phone_stop_reset_vol
                0x0104ca48                phone_talking_stop
 .text          0x0104ca9c      0x2a8 code\libs\libbt_bt15.a(resource_manage.o)
                0x0104cb54                mutex_resource_apply
                0x0104cbc4                mutex_resource_release
                0x0104ccd8                resourse_manage_init
 .rodata.str1.4
                0x0104cd44       0x21 code\libs\libbt_bt15.a(resource_manage.o)
                                 0x38 (size before relaxing)
 *fill*         0x0104cd65        0x3 00
 .text          0x0104cd68      0x994 code\libs\libbt_bt15.a(spp_accel.o)
                0x0104cd68                btstack_ctrl_loop
                0x0104cdb8                update_bt_current_status
                0x0104ce08                update_bt_prev_status
                0x0104ce18                get_bt_prev_status
                0x0104ce28                get_bt_newest_status
                0x0104ce38                get_bt_connect_status
                0x0104ce48                is_phone_active
                0x0104ce60                is_phone_hangup
                0x0104ce78                call_vol_change_handle_register
                0x0104ce88                read_remote_name_handle_register
                0x0104ce98                supervision_timeout_handle_register
                0x0104cea8                discon_complete_handle_register
                0x0104ceb8                linkkey_missing_handle_register
                0x0104cec8                hook_user_deal_hfp_status
                0x0104cf8c                hook_sco_connection_flag
                0x0104d004                hook_sco_disconnection_flag
                0x0104d050                updata_conn_for_tester_handle_register
                0x0104d060                is_auto_connect
                0x0104d074                updata_connection_channels
                0x0104d184                auto_connect_timer_register
                0x0104d4c8                bt_init
                0x0104d600                user_oper_control_handle_regiter
                0x0104d610                init_spp_ctrl
                0x0104d640                bt_stack_init_handle_register
                0x0104d650                spp_accel_main
 .rodata.str1.4
                0x0104d6fc       0x42 code\libs\libbt_bt15.a(spp_accel.o)
                                 0x4c (size before relaxing)
 *fill*         0x0104d73e        0x2 00
 .rodata        0x0104d740       0x18 code\libs\libbt_bt15.a(spp_accel.o)
 .text          0x0104d758      0xc48 code\libs\libbt_bt15.a(analog.o)
                0x0104d758                set_bt_pll_para
                0x0104d798                bt_rccl_trim
                0x0104d8f8                set_bt_rccl
                0x0104d930                bt_pll_scan
                0x0104db28                test_analog_var
                0x0104db38                test_analog_reset
                0x0104db6c                bt_analog_init
                0x0104dedc                baseband_analog
                0x0104e044                hook_bt_trim_backup_register
                0x0104e054                trim_iq
                0x0104e228                reload_bt_trim
                0x0104e284                trim_iq_all
                0x0104e36c                set_single_carrier
 .rodata        0x0104e3a0       0xcc code\libs\libbt_bt15.a(analog.o)
 .text          0x0104e46c      0x424 code\libs\libbt_bt15.a(device_manager.o)
                0x0104e4a8                stack_page_start
                0x0104e4c8                stack_standby_run
                0x0104e4e8                stack_inquiry_run
                0x0104e504                __get_access_addr
                0x0104e534                cfg_test_box_and_work_mode
                0x0104e558                link_ctrl_init
                0x0104e5d0                bt_trim_check_handle_register
                0x0104e5e0                lmp_stack_init
                0x0104e7d0                hci_set_class_of_dev
                0x0104e7e0                hci_set_address
                0x0104e848                hci_set_name
                0x0104e880                hci_set_pin_code
 .rodata        0x0104e890       0x44 code\libs\libbt_bt15.a(device_manager.o)
 .text          0x0104e8d4      0x418 code\libs\libbt_bt15.a(hci_bottom.o)
                0x0104e910                hci_send_event
                0x0104e944                hci_send_event_cmd_complete
                0x0104e98c                hci_send_event_cmd_status
                0x0104ec60                hci_event_packet_upload
                0x0104ec9c                hci_bottom_init
 .rodata.str1.4
                0x0104ecec        0xa code\libs\libbt_bt15.a(hci_bottom.o)
                                 0x10 (size before relaxing)
 *fill*         0x0104ecf6        0x2 00
 .rodata        0x0104ecf8       0xac code\libs\libbt_bt15.a(hci_bottom.o)
 .text          0x0104eda4     0x32d8 code\libs\libbt_bt15.a(lmp.o)
                0x0104ee1c                lmp_task_wakeup
                0x0104ee28                test_send_id_timeout
                0x0104f478                parse_esco_packet_type
                0x0104f494                lmp_remove_sco_link
                0x0104f564                lmp_setup_SCO_connection
                0x0104f6c4                lmp_accept_SCO_connection_request
                0x0104fae0                lmp_accept_io_cap_req
                0x0104fba4                master_first_dhkey_check
                0x0104fcd0                lmp_in_rand_res
                0x0104fd50                lmp_au_rand_req
                0x0104fd80                lmp_simple_pair_finish
                0x0104fe18                master_second_dhkey_check
                0x01051a20                lmp_link_key_req_cb
                0x01051bd8                lmp_record_err_fre
                0x01051e88                hci_role_switch_req
                0x01051e8c                lmp_acl_packet_upload
                0x01051f08                lmp_disconnect_req
                0x01051f84                disp_test_offset_handle_register
                0x01051f94                lmp_accept_connection_request
                0x01051fe4                active_callback_register
                0x01052024                deal_old_sdk_test
                0x01052030                is_lmp_link_conn_state
                0x01052044                lmp_accept_name_req
 .rodata.str1.4
                0x0105207c       0xa8 code\libs\libbt_bt15.a(lmp.o)
                                 0xb8 (size before relaxing)
 .rodata        0x01052124       0xc8 code\libs\libbt_bt15.a(lmp.o)
                0x0105218c                sco_type
                0x01052190                sco_len
                0x01052196                local_private_key
 .text          0x010521ec      0x168 code\libs\libbt_bt15.a(lmp_custom.o)
                0x01052260                lmp_custom_command_process
 .rodata.str1.4
                0x00000000        0x8 code\libs\libbt_bt15.a(lmp_custom.o)
 .text          0x01052354      0x1c4 code\libs\libbt_bt15.a(lmp_main.o)
                0x01052370                TaskBtLmp
                0x01052408                lmp_timer_schedule
                0x01052458                hci_bottom_download
                0x010524f0                hci_bottom_upload
                0x0105250c                lmp_task_exit
 .rodata.str1.4
                0x00000000       0x2c code\libs\libbt_bt15.a(lmp_main.o)
 .text          0x01052518      0x10c code\libs\libbt_bt15.a(mdm.o)
                0x01052518                mdm_init
                0x01052604                test_mdm_reset
 .text          0x01052624      0x748 code\libs\libbt_bt15.a(radio.o)
                0x01052624                clear_esco_buf
                0x01052674                radio_frq_init
                0x01052774                radio_disable_afh
                0x01052794                lmp_delay_2slot
                0x010527a8                bt_close_eninv
                0x01052844                bt_open_eninv
                0x010528d8                audio_initil
                0x01052a20                bt_trim_rccl
                0x01052a44                radio_init
                0x01052bfc                rf_debug
                0x01052c08                baseband_tri_set
                0x01052c88                radio_tri
                0x01052ccc                close_bt
                0x01052cf4                close_bt_lmp
                0x01052d30                disable_bt
 .text          0x01052d6c      0x6cc code\libs\libbt_bt15.a(role_switch_page.o)
                0x010531e8                role_switch_page_run
 .rodata        0x01053438       0x10 code\libs\libbt_bt15.a(role_switch_page.o)
 .text          0x01053448      0x100 code\libs\libbt_bt15.a(sync_word.o)
                0x01053448                mod2div
                0x010534c8                gen_bch
 .text          0x01053548     0x12d8 code\libs\libbt_bt15.a(test_dut.o)
                0x010537f0                test_mode_dut_handle
                0x0105393c                check_prbs9_data
                0x01053afc                check_rx_fill_tx_data
                0x010543a4                reset_callback_register
                0x010543d0                get_bt_test_state
                0x010543e0                TaskBtTest
                0x0105440c                test_dut_disconnect
                0x01054488                test_rf_rx_handler
                0x01054554                cfg_test_fcc_info
                0x010547a8                fcc_test_init
                0x010547b8                fre_off_test_init
                0x010547d4                __set_fcc_default_info
 .rodata.str1.4
                0x00000000       0x28 code\libs\libbt_bt15.a(test_dut.o)
 .rodata        0x01054820       0x3c code\libs\libbt_bt15.a(test_dut.o)
                0x01054820                packet_table
 .text          0x0105485c      0xbf8 code\libs\libbt_bt15.a(test_master.o)
                0x0105485c                lmp_test_master_white
                0x01054a00                disp_value_offset_handle_register
                0x01054a10                buzzer_open_handle_register
                0x01054a20                test_master_send_test_control
                0x01054acc                master_test_sw
                0x01054b1c                master_test_mode3
                0x01054b24                master_test_mode7
                0x01054b44                test_mode_master_handle
                0x01054c80                master_pause_test
                0x01054ca0                master_stop_test
                0x01054ca8                check_loop_back_data
                0x01054d70                check_fre_offset
                0x01055440                test_master_pending_fun
 .rodata.str1.4
                0x01055454        0xa code\libs\libbt_bt15.a(test_master.o)
                                 0x20 (size before relaxing)
 *fill*         0x0105545e        0x2 00
 .rodata        0x01055460      0x2e4 code\libs\libbt_bt15.a(test_master.o)
                0x01055460                master_loop_back
 .text          0x01055744      0x1b4 code\libs\libbt_bt15.a(vsprintf.o)
                0x01055744                __vsprintf_len
                0x010557c4                __vsprintf
 .text          0x010558f8        0x0 code\libs\libbt_bt15.a(apple_MA_L.o)
 .rodata        0x010558f8      0x4e0 code\libs\libbt_bt15.a(apple_MA_L.o)
                0x010558f8                apple_MA_L
 .text          0x01055dd8       0x3c code\libs\libbt_bt15.a(hciattach_bt.o)
                0x01055de4                name
                0x01055df4                bt_control_bk_instance
                0x01055e04                hci_uart_config_bk_instance
 .rodata.str1.4
                0x01055e14       0x12 code\libs\libbt_bt15.a(hciattach_bt.o)
                                 0x14 (size before relaxing)
 *fill*         0x01055e26        0x2 00
 .rodata        0x01055e28       0x38 code\libs\libbt_bt15.a(hciattach_bt.o)
 .text          0x01055e60      0x1d0 code\libs\libbt_bt15.a(btstack_memory.o)
                0x01055e60                btstack_memory_hci_connection_get
                0x01055e70                btstack_memory_hci_connection_free
                0x01055e80                btstack_memory_l2cap_service_get
                0x01055e90                btstack_memory_l2cap_service_free
                0x01055ea4                btstack_memory_l2cap_channel_get
                0x01055eb4                btstack_memory_l2cap_channel_free
                0x01055ec8                btstack_memory_rfcomm_multiplexer_get
                0x01055ed8                btstack_memory_rfcomm_multiplexer_free
                0x01055eec                btstack_memory_rfcomm_service_get
                0x01055efc                btstack_memory_rfcomm_service_free
                0x01055f10                btstack_memory_rfcomm_channel_get
                0x01055f20                btstack_memory_rfcomm_channel_free
                0x01055f34                btstack_memory_db_mem_device_name_get
                0x01055f40                btstack_memory_db_mem_device_name_free
                0x01055f4c                btstack_memory_db_mem_device_link_key_get
                0x01055f58                btstack_memory_db_mem_device_link_key_free
                0x01055f64                btstack_memory_db_mem_service_get
                0x01055f74                btstack_memory_db_mem_service_free
                0x01055f88                btstack_memory_init
 .text          0x01056030      0x11c code\libs\libbt_bt15.a(database_file.o)
                0x0105613c                open_remote_db_file
 .rodata        0x0105614c       0x18 code\libs\libbt_bt15.a(database_file.o)
 .text          0x01056164      0x860 code\libs\libbt_bt15.a(hfp_ag_profile.o)
                0x01056164                hfp_ag_var_init
                0x010561d8                hfp_ag_profile_init
                0x01056208                hfp_atcmd_rsp_send_prepare
                0x01056244                user_hook_hfp_send_atcmd_rsp_deal
                0x0105633c                receive_hfp_hf_cmd_handle_register
                0x0105634c                hfp_ag_packet_handler
                0x01056994                hfp_ag_disconnect
 .rodata        0x010569c4      0x1e8 code\libs\libbt_bt15.a(hfp_ag_profile.o)
 .rodata.str1.4
                0x01056bac       0x67 code\libs\libbt_bt15.a(hfp_ag_profile.o)
                                 0x70 (size before relaxing)
 *fill*         0x01056c13        0x1 00
 .text          0x01056c14       0x3c code\libs\libbt_bt15.a(memory_pool.o)
                0x01056c14                memory_pool_create
                0x01056c30                memory_pool_get
                0x01056c44                memory_pool_free
 .text          0x01056c50      0x554 code\libs\libbt_bt15.a(remote_device_db_memory.o)
                0x01056fb4                remote_device_db_init
                0x01056fc4                backup_remote_device_info
                0x01056ff8                restore_remote_device_info
 .rodata        0x010571a4       0x34 code\libs\libbt_bt15.a(remote_device_db_memory.o)
                0x010571a4                own_private_linkkey
                0x010571b4                remote_device_db_memory
 .text          0x010571d8      0x7c8 code\libs\libbt_bt15.a(Bluetooth_Authentication.o)
                0x010577b4                function_E1
                0x010577cc                function_E21
                0x01057820                function_E22
                0x010578d4                Entrypt_Key_Length_Change
                0x01057964                function_E3
 .rodata        0x010579a0      0x4f0 code\libs\libbt_bt15.a(Bluetooth_Authentication.o)
 .text          0x01057e90      0x4a4 code\libs\libbt_bt15.a(Crypto_hash.o)
                0x01057e90                f1_hash_function
                0x01057ef8                g_hash_function
                0x01057f94                f2_hash_function
                0x01058030                f3_hash_function
                0x010580d8                f1_function
                0x01058160                f2_function
                0x0105823c                f3_function
 .text          0x01058334       0x74 code\libs\libbt_bt15.a(authencation.o)
                0x01058334                make_seed
                0x01058354                make_rand_num
                0x0105838c                make_xor
 .text          0x010583a8     0x10b4 code\libs\libbt_bt15.a(bigint.o)
                0x01058424                bi_xor
                0x01058474                bi_wirte_to_byte
                0x010584b0                bi_is_oneORzero
                0x010584c4                bi_is_odd
                0x010584e4                bi_clear_cache
                0x01058518                bi_copy
                0x01058530                bi_permanent
                0x01058540                bi_depermanent
                0x0105854c                bi_free
                0x01058580                bi_terminate
                0x010585a8                comp_left_shift
                0x010585f0                bi_lshift
                0x01058678                bi_export
                0x010586dc                bi_free_mod
                0x01058718                bi_compare
                0x01058768                alloc
                0x0105884c                bi_multiply
                0x01058860                bi_square
                0x010588b0                bi_clone
                0x010588d8                int_to_bi
                0x010588f4                bi_initialize
                0x0105892c                find_max_exp_index
                0x01058968                exp_bit_is_one
                0x010589a8                trim
                0x01058a48                bi_import
                0x01058ab8                bi_subtract
                0x01058b18                bi_mod_sub
                0x01058b84                bi_mod_lshift
                0x01058bf4                bi_add
                0x01058c68                bi_mod_add
                0x01058c9c                bi_divide
                0x01058f50                bi_set_mod
                0x01058fd0                bi_rshift
                0x01059040                bi_poly_mul
                0x010590d0                bi_read_from_byte
                0x0105912c                bi_high_bit_pair
                0x01059174                bi_poly_mod2
                0x010591c0                bi_barrett
                0x01059274                bi_mod_inverse
                0x01059424                bi_mod_mul
                0x01059440                bi_mod_sqr
 .rodata.str1.4
                0x0105945c       0x3d code\libs\libbt_bt15.a(bigint.o)
                                 0x40 (size before relaxing)
 *fill*         0x01059499        0x3 00
 .text          0x0105949c      0x970 code\libs\libbt_bt15.a(ecdh.o)
                0x0105949c                ec_alloc
                0x010594d0                ec_new
                0x01059504                ec_free
                0x0105953c                ec_point_copy
                0x01059578                ec_dbl
                0x01059760                ec_add
                0x01059b04                ec_affine_coordinate_transform
                0x01059b8c                ec_mul_int
                0x01059bdc                ecdh_Generate_PublicKey
                0x01059c40                ecdh_PublicKey
                0x01059c68                ecdh_Compute_DHKey
                0x01059cdc                ecdh_DHKey
                0x01059d34                ecdh_init
                0x01059dc8                ecdh_free
 .rodata.str1.4
                0x01059e0c       0x1a code\libs\libbt_bt15.a(ecdh.o)
                                 0x1c (size before relaxing)
 .rodata        0x01059e26       0x48 code\libs\libbt_bt15.a(ecdh.o)
                0x01059e26                P192_p
                0x01059e3e                P192_Gx
                0x01059e56                P192_Gy
 *fill*         0x01059e6e        0x2 00
 .text          0x01059e70      0x17c code\libs\libbt_bt15.a(hmac.o)
                0x01059e70                hmacInit
                0x01059f10                hmacUpdate
                0x01059f1c                hmacFinal
                0x01059fa0                hmacCompute
 .text          0x01059fec        0x0 code\libs\libbt_bt15.a(prbs9_table.o)
 .rodata        0x01059fec      0x5fe code\libs\libbt_bt15.a(prbs9_table.o)
                0x01059fec                prbs9_table0
                0x0105a3ea                prbs9_table1
 *fill*         0x0105a5ea        0x2 00
 .text          0x0105a5ec      0x3ec code\libs\libbt_bt15.a(sha256.o)
                0x0105a5ec                sha256Init
                0x0105a654                sha256ProcessBlock
                0x0105a828                sha256Update
                0x0105a8ac                sha256Final
                0x0105a934                sha256Compute
 .rodata.str1.4
                0x0105a9d8        0x8 code\libs\libbt_bt15.a(sha256.o)
 .rodata        0x0105a9e0      0x174 code\libs\libbt_bt15.a(sha256.o)
                0x0105a9e0                sha256HashAlgo
 .text          0x0105ab54      0x248 code\libs\libbt_bt15.a(BINT_MUL_CORE.o)
                0x0105ab54                bigint_mul_core
                0x0105ac08                bigint_sqr_core
                0x0105acf4                bigint_mul_core_simple
                0x0105ad82                mac64tst
 .text          0x0105ad9c       0x6c code\libs\libbt_bt15.a(endian.o)
                0x0105ad9c                _swap16
                0x0105ada8                _swap32
                0x0105adcc                _swap64
 .text          0x0105ae08      0x41c code\libs\lib_btrepair.a(BT15_repair.o)
                0x0105b214                get_repair_api
 .rodata        0x0105b224        0xc code\libs\lib_btrepair.a(BT15_repair.o)
                0x0105b224                BT15_REPAIR_API_OBJ
 .text          0x0105b230      0x234 code\libs\lib_aac_decode.a(aac_main.o)
                0x0105b3dc                config_ram_global
                0x0105b404                aac_decoder_open
                0x0105b454                get_aac_ops
 .rodata.str1.4
                0x00000000        0x4 code\libs\lib_aac_decode.a(aac_main.o)
 .rodata        0x0105b464       0x34 code\libs\lib_aac_decode.a(aac_main.o)
                0x0105b464                aac_decoder_ops
 .text          0x0105b498       0xec code\libs\lib_aac_decode.a(common.o)
                0x0105b498                get_sr_index
                0x0105b524                get_sample_rate
                0x0105b540                max_pred_sfb
                0x0105b55c                max_tns_sfb
 .rodata        0x0105b584      0x284 code\libs\lib_aac_decode.a(common.o)
                0x0105b584                sample_rates
                0x0105b5b4                pred_sfb_max
                0x0105b5c0                tns_sbf_max
                0x0105b600                pow2_tab
                0x0105b704                log2_tab
 .text          0x0105b808      0x228 code\libs\lib_aac_decode.a(decoder.o)
                0x0105b808                NeAACDecGetErrorMessage
                0x0105b824                NeAACDecOpen
                0x0105b8a8                NeAACDecSetConfiguration
                0x0105b8b8                aac_frame_decode
 .rodata.str1.4
                0x0105ba30      0x510 code\libs\lib_aac_decode.a(decoder.o)
 .text          0x0105bf40      0xad8 code\libs\lib_aac_decode.a(filtbank.o)
                0x0105bf40                filter_bank_init
                0x0105bfd0                ifilter_bank
 .rodata        0x0105ca18     0x2400 code\libs\lib_aac_decode.a(filtbank.o)
 .text          0x0105ee18      0x1f8 code\libs\lib_aac_decode.a(mdct.o)
                0x0105ee44                faad_mdct_init
                0x0105ee80                faad_imdct
 .rodata        0x0105f010     0x1200 code\libs\lib_aac_decode.a(mdct.o)
 .text          0x01060210       0xc0 code\libs\lib_aac_decode.a(output.o)
                0x01060210                output_to_PCM
 .text          0x010602d0     0x139c code\libs\lib_aac_decode.a(syntax.o)
                0x01060b5c                init_cpe
                0x01060cb4                raw_data_block
                0x0106152c                adts_frame
 .rodata        0x0106166c       0x1c code\libs\lib_aac_decode.a(syntax.o)
 .text          0x01061688      0x2b4 code\libs\lib_aac_decode.a(bits.o)
                0x010616e4                faad_initbits
                0x01061770                faad_endbits
                0x0106177c                faad_get_processed_bits
                0x01061790                faad_flushbits_ex
                0x010617e0                faad_byte_align
                0x01061828                faad_rewindbits
                0x0106189c                faad_resetbits
 .text          0x0106193c      0x690 code\libs\lib_aac_decode.a(cfft.o)
                0x01061da0                cfftb
                0x01061edc                cffti
 .rodata        0x01061fcc     0x1608 code\libs\lib_aac_decode.a(cfft.o)
                0x01061fcc                cfft_tab_512
                0x01062fcc                cfft_tab_64
                0x010631cc                cfft_tab_128
 .text          0x010635d4      0x55c code\libs\lib_aac_decode.a(huffman.o)
                0x01063970                huffman_scale_factor
                0x010639c4                huffman_spectral_data
 .rodata        0x01063b30     0x2004 code\libs\lib_aac_decode.a(huffman.o)
                0x01063b60                hcb1_1
                0x01063ba0                hcb1_2
                0x01063dd5                hcb2_1
                0x01063e15                hcb2_2
                0x01063fbe                hcb3
                0x010642e3                hcb4_1
                0x01064323                hcb4_2
                0x010646bb                hcb5
                0x0106489e                hcb6_1
                0x010648de                hcb6_2
                0x01064a55                hcb7
                0x01064bd2                hcb8_1
                0x01064c12                hcb8_2
                0x01064d0b                hcb9
                0x010650fe                hcb10_1
                0x0106517e                hcb10_2
                0x010653f1                hcb11_1
                0x01065431                hcb11_2
                0x01065893                hcb_sf
                0x01065a75                hcbN
                0x01065a81                unsigned_cb
                0x01065aa4                hcb_2_quad_table_size
                0x01065ad4                hcb_2_pair_table_size
                0x01065b04                hcb_bin_table_size
 .text          0x01065b34       0x70 code\libs\lib_aac_decode.a(pulse.o)
                0x01065b34                pulse_decode
 .text          0x01065ba4      0x6bc code\libs\lib_aac_decode.a(specrec.o)
                0x01065c3c                window_grouping_info
                0x01065e48                quant_to_spec
                0x010660f0                reconstruct_single_channel
                0x01066164                reconstruct_channel_pair
 .rodata        0x01066260      0x774 code\libs\lib_aac_decode.a(specrec.o)
                0x01066260                num_swb_960_window
                0x0106626c                num_swb_1024_window
                0x01066278                num_swb_128_window
                0x01066284                swb_offset_1024_96
                0x010662d8                swb_offset_128_96
                0x010662f2                swb_offset_1024_64
                0x01066352                swb_offset_128_64
                0x0106636c                swb_offset_1024_48
                0x010663d0                swb_offset_128_48
                0x010663ee                swb_offset_1024_32
                0x01066456                swb_offset_1024_24
                0x010664b6                swb_offset_128_24
                0x010664d6                swb_offset_1024_16
                0x0106652e                swb_offset_128_16
                0x0106654e                swb_offset_1024_8
                0x010665a0                swb_offset_128_8
                0x010665c0                pow2_table
 .text          0x010669d4      0x600 code\libs\lib_aac_decode.a(tns.o)
                0x01066b10                tns_decode_frame
                0x01066d74                tns_encode_frame
 .rodata        0x01066fd4      0x100 code\libs\lib_aac_decode.a(tns.o)
                0x01066fd4                tns_coef_0_3
                0x01067014                tns_coef_0_4
                0x01067054                tns_coef_1_3
                0x01067094                tns_coef_1_4
 .text          0x010670d4      0x214 code\libs\lib_aac_decode.a(is.o)
                0x010670d4                is_intensity
                0x01067108                invert_intensity
                0x01067138                is_decode
 .rodata        0x010672e8       0x20 code\libs\lib_aac_decode.a(is.o)
                0x010672e8                pow05_table
 .text          0x01067308      0x148 code\libs\lib_aac_decode.a(ms.o)
                0x01067308                is_noise
                0x01067328                ms_decode
 .text          0x01067450       0x80 code\libs\libBt_a2dp_sync.a(bt_a2dp_sync.o)
                0x01067450                bt_a2dp_sync_QuaryBufSize
                0x0106745c                bt_a2dp_sync_init
                0x010674a0                bt_a2dp_sync_main
                0x010674b8                bt_a2dp_sync_SetSyncInterval
                0x010674c4                bt_a2dp_sync_SetSampleRate
 .text          0x010674d0      0x910 code\libs\libBt_a2dp_sync.a(syn_ps.o)
                0x01067dc4                test
                0x01067dd0                get_syn_ps_api
 .rodata        0x01067de0       0x60 code\libs\libBt_a2dp_sync.a(syn_ps.o)
                0x01067de0                syn_search_len
                0x01067df2                syn_insize
                0x01067e04                syn_prebuf_length
                0x01067e16                syn_shift_bit
                0x01067e20                syn_fifo_length
                0x01067e34                syn_ps_api_obj
 .text          0x01067e40       0x74 code\libs\clk_ac46.a(clock_api.o)
                0x01067e40                clock_init
 .text          0x01067eb4      0x748 code\libs\clk_ac46.a(clock_moudle.o)
                0x01067ef0                clock_moudle_rc_init
                0x01067f1c                clock_moudle_osc_init
                0x01067fd0                clock_moudle_exosc_init
                0x01068080                clock_moudle_bt_osc_init
                0x010681c0                clock_moudle_rtc_osc_init
                0x010681c4                clock_moudle_exio_init
                0x010681c8                clock_moudle_osc_input_osc
                0x010681dc                clock_moudle_osc_input_bt_osc
                0x010681f0                clock_moudle_osc_input_rtc_osc
                0x01068204                clock_moudle_osc_input_exio
                0x01068218                clock_moudle_pll_enable
                0x01068264                clock_moudle_pll_input_osc
                0x0106827c                clock_moudle_pll_input_bt_osc
                0x01068294                clock_moudle_pll_input_reserved
                0x010682ac                clock_moudle_pll_ref_src
                0x010682c4                clock_moudle_pll_ref_clk
                0x01068374                clock_moudle_main_clk_input
                0x01068398                clock_moudle_sys_clk_rc
                0x010683a8                clock_moudle_sys_clk_main
                0x010683b8                clock_moudle_lsb_clk_div
                0x010683e0                clock_out_PA4
                0x01068428                clock_out_PA5
                0x0106846c                clock_moudle_pll_sys_clk
                0x01068494                clock_moudle_pll_fm_clk
                0x010684c0                clock_moudle_pll_rfi_clk
                0x010684f0                clock_moudle_pll_apc_clk
                0x01068524                peripherals_moudle_usb_clk
                0x0106853c                peripherals_moudle_dac_clk
                0x01068558                peripherals_moudle_ladc_clk
                0x01068574                peripherals_moudle_apc_clk
                0x01068590                peripherals_moudle_lcd_clk
                0x010685ac                peripherals_moudle_uart_clk
                0x010685c8                peripherals_moudle_fm_clk
                0x010685e4                peripherals_moudle_bt_clk
 .text          0x010685fc      0x490 code\libs\clk_ac46.a(clock_app.o)
                0x010686c8                clock_set
                0x01068700                lsb_limit
                0x01068778                clock_run
                0x010687c0                clock_set_sys_freq
                0x01068834                clock_get_sys_freq
                0x01068844                clock_set_fm_freq
                0x0106888c                clock_get_fm_freq
                0x0106889c                clock_set_rfi_freq
                0x010688e4                clock_get_rfi_freq
                0x010688f4                clock_set_apc_freq
                0x0106894c                clock_get_apc_freq
                0x0106895c                clock_set_lsb_freq
                0x010689cc                clock_get_lsb_freq
                0x010689f0                clock_regisit
 .rodata.str1.4
                0x01068a8c      0x150 code\libs\clk_ac46.a(clock_app.o)
 .rodata        0x01068bdc       0x1c code\libs\clk_ac46.a(clock_app.o)
 .text          0x01068bf8      0x390 code\libs\clk_ac46.a(pll_moudle.o)
                0x01068d48                pll_interface_set
                0x01068d70                pll_io_enable
                0x01068d9c                pll_input
                0x01068dc8                pll_run
                0x01068df4                pll_set_sys_freq
                0x01068e20                pll_set_fm_freq
                0x01068e4c                pll_set_rfi_freq
                0x01068e78                pll_set_apc_freq
                0x01068ea4                pll_source_regisit
                0x01068f4c                pll_moudle_init
 .rodata.str1.4
                0x01068f88      0x176 code\libs\clk_ac46.a(pll_moudle.o)
                                0x178 (size before relaxing)
 *fill*         0x010690fe        0x2 00
 .rodata        0x01069100       0x80 code\libs\clk_ac46.a(pll_moudle.o)
                0x01069100                pll_clk480_tab
                0x01069140                pll_clk192_tab
 .text          0x01069180      0x788 code\libs\lib_ape_decode.a(mtst_ape.o)
                0x0106928c                ape_decoder_open
                0x01069304                get_ape_ops
                0x01069314                ape_dec_fileStatus
                0x01069490                get_bitsape
                0x010694e8                ape_win_fread
                0x010695bc                APE_fseek
                0x0106964c                fill_buf
                0x01069678                get_bitbye
                0x010696d4                get_bytes
                0x0106970c                get_le16
                0x01069730                get_le32
                0x01069768                url_fseek
                0x01069798                get_buffer
                0x010697cc                freebuf
                0x010697d8                fread32
                0x01069824                fread8
                0x01069860                my_get_le32
                0x010698a4                fread8_new
 .rodata.str1.4
                0x00000000        0x4 code\libs\lib_ape_decode.a(mtst_ape.o)
 .rodata        0x01069908       0x34 code\libs\lib_ape_decode.a(mtst_ape.o)
                0x01069908                ape_decoder_ops
 .text          0x0106993c     0x1a58 code\libs\lib_ape_decode.a(apedec.o)
                0x0106993c                init_ape
                0x01069974                ff_id3v2_match_for_ape
                0x010699d0                ape_cal_id3v2_tag_len
                0x01069a0c                ape_read_header
                0x01069da8                get_seektab_val
                0x01069dc0                stroe_seek_table
                0x01069ee0                init_apeinfo
                0x01069f70                ape_read_seektab
                0x0106a048                normalize_fread_len
                0x0106a074                range_dec_normalize
                0x0106a0e8                range_decode_bits
                0x0106a128                range_get_symbol
                0x0106a1c4                cal_log2
                0x0106a1ec                ape_decode_value
                0x0106a3f8                entropy_decode
                0x0106a494                ape_av_clip_int16
                0x0106a4ac                predictor_update_filter
                0x0106a7a4                dec_stereo_core1
                0x0106a9f0                predictor_decode_stereo
                0x0106aa28                predictor_decode_mono
                0x0106ab44                ape_filter_chr
                0x0106ab50                ape_apply_filters
                0x0106abfc                init_frame_decoder
                0x0106acbc                ape_mono_end_handle
                0x0106acf8                ape_stereo_end_handle
                0x0106ad94                ape_predictor_ms
                0x0106ada0                ape_unpack_mono
                0x0106aef8                ape_unpack_stereo
                0x0106b050                ape_decode_frame
                0x0106b1d0                ape_decode_block
                0x0106b330                APE_DEC_INIT
 .rodata        0x0106b394      0x160 code\libs\lib_ape_decode.a(apedec.o)
                0x0106b3a8                ape_filter_orders
                0x0106b3b2                ape_filter_fracbits
                0x0106b3b8                counts_3970
                0x0106b3e4                counts_diff_3970
                0x0106b40e                counts_3980
                0x0106b43a                counts_diff_3980
                0x0106b464                K_SUM_MIN_BOUNDARY
                0x0106b4e4                initial_coeffs
 .text          0x0106b4f4      0x4f0 code\libs\lib_ape_decode.a(dv_ape.o)
                0x0106b4f4                do_apply_filter
                0x0106b68a                ape_filter_chr_core
                0x0106b820                dec_stereo_core
 .text          0x0106b9e4      0x4d4 code\libs\lib_flac_decode.a(mtst_flac.o)
                0x0106bacc                flac_decoder_open
                0x0106bb30                get_flac_ops
                0x0106bb40                flac_dec_fileStatus
                0x0106bbcc                FLAC_fread
                0x0106bc90                updata_bitstream
                0x0106bd20                flac_get_bits
                0x0106bdac                flac_get_sbits
                0x0106be38                flac_skip_bits
                0x0106bea8                align_flac_get_bits
 .rodata.str1.4
                0x00000000        0x4 code\libs\lib_flac_decode.a(mtst_flac.o)
 .rodata        0x0106beb8       0x34 code\libs\lib_flac_decode.a(mtst_flac.o)
                0x0106beb8                flac_decoder_ops
 .text          0x0106beec      0xec8 code\libs\lib_flac_decode.a(flacdec.o)
                0x0106beec                dsp_oputdata
                0x0106c02c                dsp_handle
                0x0106c124                flac_av_log2
                0x0106c168                flac_fl1_find
                0x0106c18c                find_first_1
                0x0106c258                decode_residuals
                0x0106c3e8                decode_subframe_fixed
                0x0106c444                decode_subframe_lpc
                0x0106c4f0                decode_subframe
                0x0106c6f4                bswap_32
                0x0106c718                ff_id3v2_match_for_flac
                0x0106c774                flac_cal_id3v2_tag_len
                0x0106c7b0                flac_header
                0x0106c990                flac_init
                0x0106ca30                flac_frame_header
                0x0106cc30                flac_decode_block
 .rodata        0x0106cdb4       0xf0 code\libs\lib_flac_decode.a(flacdec.o)
                0x0106cdb4                res_fix_tab
                0x0106ce04                sample_rate_table
                0x0106ce44                sample_size_table
                0x0106ce64                blocksize_table
 .text          0x0106cea4      0xbe4 code\libs\lib_encode.a(encode.o)
                0x0106d048                reg2sr
                0x0106d064                rec_file_read
                0x0106d070                rec_file_write
                0x0106d07c                rec_file_close
                0x0106d088                rec_file_seek
                0x0106d09c                rec_file_delete
                0x0106d0a8                get_file_size
                0x0106d0b4                reset_wav_header
                0x0106d104                enc_time_cut_tail
                0x0106d17c                fw_api_init
                0x0106d1b0                fop_api_init
                0x0106d204                free_fop
                0x0106d234                get_enc_time
                0x0106d248                updata_enc_time
                0x0106d294                enc_info_free
                0x0106d2d0                free_mpx_enc
                0x0106d31c                write_head_api
                0x0106d3c0                stop_rec
                0x0106d4d0                exit_rec
                0x0106d5c4                write2file
                0x0106d708                enc_info_init
                0x0106d884                init_enc
                0x0106da3c                enc_run_creat
 .rodata.str1.4
                0x0106da88      0x194 code\libs\lib_encode.a(encode.o)
                                0x1a0 (size before relaxing)
 .rodata        0x0106dc1c       0x2c code\libs\lib_encode.a(encode.o)
 .text          0x0106dc48      0x11c code\libs\lib_encode.a(dev_write_api.o)
                0x0106dc48                encode_fs_open
                0x0106dcb0                encode_file_open
                0x0106dd30                encode_fs_close
                0x0106dd54                encode_get_fileinfo
 .text          0x0106dd64      0x134 code\libs\lib_adpcm_encode.a(en_adpcm_test.o)
                0x0106de78                get_enadpcm_ops
                0x0106de88                get_enadpcm_opst
 .rodata        0x0106de98       0x18 code\libs\lib_adpcm_encode.a(en_adpcm_test.o)
                0x0106de98                adpcmcontobj_ops
 .text          0x0106deb0      0x910 code\libs\lib_adpcm_encode.a(en_adpcm.o)
                0x0106deb0                adpcm_coder_noheader
                0x0106df98                adpcm_decoder_noheader
                0x0106e070                adpcm_coder
                0x0106e478                adpcm_codert
 .rodata        0x0106e7c0      0x1a4 code\libs\lib_adpcm_encode.a(en_adpcm.o)
 .text          0x0106e964      0x294 code\libs\lib_mp2_encode.a(mp2_test.o)
                0x0106e964                mp2_put_bits
                0x0106ebd8                get_mp2_ops
                0x0106ebe8                get_mp2_opst
 .rodata        0x0106ebf8       0x70 code\libs\lib_mp2_encode.a(mp2_test.o)
                0x0106ebf8                smr1
                0x0106ec38                mp2contobj_ops
                0x0106ec50                mp2contobj_opst
 .text          0x0106ec68      0xa48 code\libs\lib_mp2_encode.a(mp2dsp.o)
                0x0106f168                mp2_filter
                0x0106f3f4                mp2_filter2
 .rodata        0x0106f6b0      0xca0 code\libs\lib_mp2_encode.a(mp2dsp.o)
                0x0106f6b0                mp2_filter_bank
                0x0106feb0                mp2_costab32
                0x0106ff2c                bitinv32
                0x0106ff4c                mpa_enwindow
 .text          0x01070350      0x93c code\libs\lib_mp2_encode.a(encodemp2.o)
                0x01070350                encode_init
                0x010706d4                compute_scale_factors
                0x010707c4                get_header_length
                0x0107086c                encode_frame_header
                0x01070a44                encode_frame_data
 .rodata        0x01070c8c      0x374 code\libs\lib_mp2_encode.a(encodemp2.o)
                0x01070c8c                mp3_freq_tab
                0x01070c92                mp2_bitrate_table
                0x01070cdd                sblimt
                0x01070ce2                quant_steps
                0x01070d04                quant_bits
                0x01070d16                total_quant_bits
                0x01070d38                alloc_sb1
                0x01070d56                alloc_table_1
                0x01070d82                alloc_sb3
                0x01070d8e                alloc_table_3
                0x01070da6                alloc_sb4
                0x01070dc4                alloc_table_4
                0x01070de0                quant_snr
                0x01070e04                alloc_sbs
                0x01070e18                alloc_tables
                0x01070e2c                nb_scale_factors
                0x01070e30                scale_factor_table
                0x01070f30                scale_factor_shift
                0x01070f70                scale_factor_mult
                0x01070ff0                mp2_ff_log2_tab
 .text          0x01071000       0x7c C:\JL\dv10\lib\libc.a(lib_a-memcmp.o)
                0x01071000                memcmp
 .text          0x0107107c       0xcc C:\JL\dv10\lib\libc.a(lib_a-memmove.o)
                0x0107107c                memmove
 .text          0x01071148       0x6c C:\JL\dv10\lib\libc.a(lib_a-rand.o)
                0x01071148                srand
                0x01071168                rand
 .text          0x010711b4       0xb0 C:\JL\dv10\lib\libc.a(lib_a-strcmp.o)
                0x010711b4                strcmp
 .text          0x01071264       0x6c C:\JL\dv10\lib\libc.a(lib_a-strcpy.o)
                0x01071264                strcpy
 .text          0x010712d0       0x9c C:\JL\dv10\lib\libc.a(lib_a-strlen.o)
                0x010712d0                strlen
 .text          0x0107136c      0x638 C:\JL\dv10\lib\libc.a(lib_a-strstr.o)
                0x01071708                strstr
 .text          0x010719a4       0xd0 C:\JL\dv10\lib\libc.a(lib_a-memchr.o)
                0x010719a4                memchr
 .text          0x01071a74      0x150 C:\JL\dv10\lib\libc.a(lib_a-strchr.o)
                0x01071a74                strchr
 .text          0x01071bc4      0x210 C:\JL\dv10\lib\libgcc.a(divsf3.o)
                0x01071bc4                __divsf3
 .rodata        0x01071dd4       0x40 C:\JL\dv10\lib\libgcc.a(divsf3.o)
 .text          0x01071e14      0x390 C:\JL\dv10\lib\libgcc.a(subsf3.o)
                0x01071e14                __subsf3
 .text          0x010721a4       0x68 C:\JL\dv10\lib\libgcc.a(fixsfsi.o)
                0x010721a4                __fixsfsi
 .text          0x0107220c       0xcc C:\JL\dv10\lib\libgcc.a(floatsisf.o)
                0x0107220c                __floatsisf
 .text          0x010722d8       0x4c C:\JL\dv10\lib\libgcc.a(_clzsi2.o)
                0x010722d8                __clzsi2
                0x01072324                _text_end = .
                0x0000087c                _VM_CODE_SIZE = (_VM_CODE_END - _VM_CODE_START)
                0x00075a58                _text_size = (SIZEOF (.text) + SIZEOF (.data))
                0x0000a9ac                _alldata_size = (SIZEOF (.data) + SIZEOF (.bss))
                0x00304b34                _bss_begin = ADDR (.bss)
                0x00005e78                _bss_size = SIZEOF (.bss)
                0x00300000                _data_addr = ADDR (.data)
                0x01072324                _data_begin = _text_end
                0x00004b34                _data_size = SIZEOF (.data)
                0x00344000                _data1_addr = ADDR (.data1)
                0x01076e58                _data1_begin = (_text_end + SIZEOF (.data))
                0x0000087c                _data1_size = SIZEOF (.data1)
                0x0034487c                _bss2_begin = ADDR (.bss2)
                0x0000019c                _bss2_size = SIZEOF (.bss2)
LOAD code\libs\dec_lib_ac46.a
LOAD code\libs\cbuf.a
LOAD code\libs\lib_dac.a
LOAD code\libs\sys_cfg_ac46.a
LOAD code\libs\aec_ac46.a
LOAD code\libs\libSpeech_dection.a
LOAD code\libs\libDAGC.a
LOAD code\libs\libsbcdeocode.a
LOAD code\libs\lib_mp3_decode.a
LOAD code\libs\lib_wav_decode.a
LOAD code\libs\ef_api_ac46.a
LOAD code\libs\lib_audio_effect.a
LOAD code\libs\lib_wma_decode.a
LOAD code\libs\dev_mg_lib.a
LOAD code\libs\libtff.a
LOAD code\libs\mem_ac46.a
LOAD code\libs\sd.a
LOAD code\libs\usb.a
LOAD code\libs\librtos_bt15.a
LOAD code\libs\lib_cache_vm_bt15.a
LOAD code\libs\sydf_ac46.a
LOAD code\libs\lib_fm_resample.a
LOAD code\libs\lib_fm_driver.a
LOAD code\libs\libBtCalling.a
LOAD code\libs\lib_usb_syn.a
LOAD code\libs\libbt_bt15.a
LOAD code\libs\lib_btrepair.a
LOAD code\libs\lib_aac_decode.a
LOAD code\libs\libBt_a2dp_sync.a
LOAD code\libs\clk_ac46.a
LOAD code\libs\lib_ape_decode.a
LOAD code\libs\lib_flac_decode.a
LOAD code\libs\lib_encode.a
LOAD code\libs\lib_adpcm_encode.a
LOAD code\libs\lib_mp2_encode.a
LOAD C:\JL\dv10\lib\libc.a
LOAD C:\JL\dv10\lib\libgcc.a
LOAD C:\JL\dv10\lib\libgcov.a
LOAD C:\JL\dv10\lib\libiberty.a
LOAD C:\JL\dv10\lib\libm.a
OUTPUT(bin\Debug\dv10_example.or32 elf32-dv10)

.eh_frame       0x01072324       0xb8
 .eh_frame      0x01072324       0x40 C:\JL\dv10\lib\libgcc.a(_divdi3.o)
 .eh_frame      0x01072364       0x3c C:\JL\dv10\lib\libgcc.a(_udivdi3.o)
                                 0x4c (size before relaxing)
 .eh_frame      0x010723a0       0x3c C:\JL\dv10\lib\libgcc.a(_umoddi3.o)
                                 0x4c (size before relaxing)

.debug_abbrev   0x00000000    0x16a9c
 .debug_abbrev  0x00000000      0x101 obj\Debug\\code\apps\bt\aec\aec_api.o
 .debug_abbrev  0x00000101      0x21c obj\Debug\\code\apps\bt\btstack\bt_configs_user.o
 .debug_abbrev  0x0000031d      0x2ef obj\Debug\\code\apps\bt\btstack\bt_key_deal.o
 .debug_abbrev  0x0000060c       0xcf obj\Debug\\code\apps\bt\btstack\bt_key_msg.o
 .debug_abbrev  0x000006db      0x179 obj\Debug\\code\apps\bt\btstack\fcc_test.o
 .debug_abbrev  0x00000854      0x3c2 obj\Debug\\code\apps\fm\fm_api.o
 .debug_abbrev  0x00000c16       0xcf obj\Debug\\code\apps\fm\fm_key.o
 .debug_abbrev  0x00000ce5       0xd6 obj\Debug\\code\apps\fm\fm_prompt.o
 .debug_abbrev  0x00000dbb      0x2e9 obj\Debug\\code\apps\fm\fm_radio.o
 .debug_abbrev  0x000010a4      0x1d9 obj\Debug\\code\apps\idle\idle.o
 .debug_abbrev  0x0000127d       0xcf obj\Debug\\code\apps\idle\idle_key.o
 .debug_abbrev  0x0000134c      0x1a2 obj\Debug\\code\apps\linein\dev_linein.o
 .debug_abbrev  0x000014ee      0x2a8 obj\Debug\\code\apps\linein\linein.o
 .debug_abbrev  0x00001796       0xcf obj\Debug\\code\apps\linein\linein_key.o
 .debug_abbrev  0x00001865       0xcf obj\Debug\\code\apps\linein\linein_prompt.o
 .debug_abbrev  0x00001934      0x248 obj\Debug\\code\apps\main\main.o
 .debug_abbrev  0x00001b7c       0xcf obj\Debug\\code\apps\main\main_key.o
 .debug_abbrev  0x00001c4b      0x181 obj\Debug\\code\apps\main\vm_api.o
 .debug_abbrev  0x00001dcc      0x1c2 obj\Debug\\code\apps\music\ef_api.o
 .debug_abbrev  0x00001f8e      0x34f obj\Debug\\code\apps\music\music.o
 .debug_abbrev  0x000022dd      0x20a obj\Debug\\code\apps\music\music_info.o
 .debug_abbrev  0x000024e7       0xcf obj\Debug\\code\apps\music\music_key.o
 .debug_abbrev  0x000025b6      0x17c obj\Debug\\code\apps\music\music_prompt.o
 .debug_abbrev  0x00002732      0x2a0 obj\Debug\\code\apps\music\play_sel.o
 .debug_abbrev  0x000029d2       0xcf obj\Debug\\code\apps\record\rec_key.o
 .debug_abbrev  0x00002aa1      0x2d3 obj\Debug\\code\apps\record\record.o
 .debug_abbrev  0x00002d74       0xa9 obj\Debug\\code\apps\rtc\irtc.o
 .debug_abbrev  0x00002e1d       0xb6 obj\Debug\\code\apps\rtc\rtc.o
 .debug_abbrev  0x00002ed3       0xa9 obj\Debug\\code\apps\rtc\rtc_key.o
 .debug_abbrev  0x00002f7c       0xa9 obj\Debug\\code\apps\rtc\rtc_low_power.o
 .debug_abbrev  0x00003025       0xcf obj\Debug\\code\apps\rtc\rtc_prompt.o
 .debug_abbrev  0x000030f4       0xa9 obj\Debug\\code\apps\rtc\rtc_setting.o
 .debug_abbrev  0x0000319d      0x26b obj\Debug\\code\apps\usb_device\dev_pc.o
 .debug_abbrev  0x00003408       0xd6 obj\Debug\\code\apps\usb_device\pc_prompt.o
 .debug_abbrev  0x000034de      0x2b1 obj\Debug\\code\apps\usb_device\usb_device.o
 .debug_abbrev  0x0000378f       0xcf obj\Debug\\code\apps\usb_device\usb_key.o
 .debug_abbrev  0x0000385e       0xbf obj\Debug\\code\common\ASCII_lib.o
 .debug_abbrev  0x0000391d      0x14d obj\Debug\\code\common\common.o
 .debug_abbrev  0x00003a6a      0x217 obj\Debug\\code\common\dev_manage\dev_ctl.o
 .debug_abbrev  0x00003c81        0x1 obj\Debug\\code\common\fcvt.o
 .debug_abbrev  0x00003c82      0x30a obj\Debug\\code\common\file_operate\file_operate.o
 .debug_abbrev  0x00003f8c      0x171 obj\Debug\\code\common\os_api\os_api.o
 .debug_abbrev  0x000040fd      0x27c obj\Debug\\code\common\os_api\task_manage.o
 .debug_abbrev  0x00004379      0x210 obj\Debug\\code\common\printf-stdarg.o
 .debug_abbrev  0x00004589      0x25c obj\Debug\\code\common\ui\led7_drv.o
 .debug_abbrev  0x000047e5      0x126 obj\Debug\\code\common\ui\led_ui_api.o
 .debug_abbrev  0x0000490b       0xf9 obj\Debug\\code\common\ui\ui_common.o
 .debug_abbrev  0x00004a04      0x195 obj\Debug\\code\common\voice_prompt\voice_prompt.o
 .debug_abbrev  0x00004b99      0x1b4 obj\Debug\\code\cpu\ac46\board\board_bt15_v0.o
 .debug_abbrev  0x00004d4d       0xa9 obj\Debug\\code\cpu\ac46\driver\M62429.o
 .debug_abbrev  0x00004df6      0x129 obj\Debug\\code\cpu\ac46\driver\clock.o
 .debug_abbrev  0x00004f1f      0x275 obj\Debug\\code\cpu\ac46\driver\dac.o
 .debug_abbrev  0x00005194       0xa9 obj\Debug\\code\cpu\ac46\driver\encoder.o
 .debug_abbrev  0x0000523d       0xbc obj\Debug\\code\cpu\ac46\driver\interrupt_isr.o
 .debug_abbrev  0x000052f9      0x20b obj\Debug\\code\cpu\ac46\driver\key.o
 .debug_abbrev  0x00005504      0x189 obj\Debug\\code\cpu\ac46\driver\key_drv_ad.o
 .debug_abbrev  0x0000568d       0xa9 obj\Debug\\code\cpu\ac46\driver\key_drv_io.o
 .debug_abbrev  0x00005736      0x190 obj\Debug\\code\cpu\ac46\driver\key_drv_ir.o
 .debug_abbrev  0x000058c6       0xa9 obj\Debug\\code\cpu\ac46\driver\key_drv_tch.o
 .debug_abbrev  0x0000596f      0x1a5 obj\Debug\\code\cpu\ac46\driver\key_voice.o
 .debug_abbrev  0x00005b14       0xa9 obj\Debug\\code\cpu\ac46\driver\kok_detect.o
 .debug_abbrev  0x00005bbd      0x18c obj\Debug\\code\cpu\ac46\driver\ladc.o
 .debug_abbrev  0x00005d49      0x161 obj\Debug\\code\cpu\ac46\driver\led.o
 .debug_abbrev  0x00005eaa       0xdc obj\Debug\\code\cpu\ac46\driver\low_power.o
 .debug_abbrev  0x00005f86       0xa9 obj\Debug\\code\cpu\ac46\driver\pt2313.o
 .debug_abbrev  0x0000602f      0x1d1 obj\Debug\\code\cpu\ac46\driver\sys_detect.o
 .debug_abbrev  0x00006200      0x21b obj\Debug\\code\cpu\ac46\driver\timer.o
 .debug_abbrev  0x0000641b      0x249 obj\Debug\\code\cpu\ac46\driver\uart.o
 .debug_abbrev  0x00006664      0x1be code\libs\dec_lib_ac46.a(music_api.o)
 .debug_abbrev  0x00006822       0xf1 code\libs\dec_lib_ac46.a(sup_dec_op.o)
 .debug_abbrev  0x00006913      0x324 code\libs\dec_lib_ac46.a(decoder_phy.o)
 .debug_abbrev  0x00006c37      0x230 code\libs\lib_dac.a(dac_init.o)
 .debug_abbrev  0x00006e67      0x32c code\libs\lib_dac.a(dac_channel.o)
 .debug_abbrev  0x00007193       0xb7 code\libs\sys_cfg_ac46.a(pll.o)
 .debug_abbrev  0x0000724a       0x12 code\libs\sys_cfg_ac46.a(reg.o)
 .debug_abbrev  0x0000725c       0x14 code\libs\sys_cfg_ac46.a(startup.o)
 .debug_abbrev  0x00007270      0x197 code\libs\sys_cfg_ac46.a(system_cfg_file.o)
 .debug_abbrev  0x00007407      0x1d9 code\libs\sys_cfg_ac46.a(hwi.o)
 .debug_abbrev  0x000075e0      0x1e8 code\libs\sys_cfg_ac46.a(irq.o)
 .debug_abbrev  0x000077c8      0x262 code\libs\sys_cfg_ac46.a(system_cfg.o)
 .debug_abbrev  0x00007a2a      0x2c0 code\libs\aec_ac46.a(aec.o)
 .debug_abbrev  0x00007cea       0xef code\libs\aec_ac46.a(aec_tst_sd.o)
 .debug_abbrev  0x00007dd9      0x111 code\libs\aec_ac46.a(cdn3_btsyn.o)
 .debug_abbrev  0x00007eea       0xfe code\libs\aec_ac46.a(AGC.o)
 .debug_abbrev  0x00007fe8       0xf2 code\libs\libDAGC.a(DAGC.o)
 .debug_abbrev  0x000080da      0x109 code\libs\libDAGC.a(AGC.o)
 .debug_abbrev  0x000081e3      0x27e code\libs\lib_wav_decode.a(testwav.o)
 .debug_abbrev  0x00008461      0x169 code\libs\lib_wav_decode.a(wavdec_api.o)
 .debug_abbrev  0x000085ca      0x1b2 code\libs\lib_wav_decode.a(ima_adpcm.o)
 .debug_abbrev  0x0000877c      0x1d2 code\libs\lib_wav_decode.a(msadpcmdec.o)
 .debug_abbrev  0x0000894e      0x236 code\libs\ef_api_ac46.a(audio_ef.o)
 .debug_abbrev  0x00008b84      0x3b4 code\libs\dev_mg_lib.a(drv_manage.o)
 .debug_abbrev  0x00008f38      0x218 code\libs\dev_mg_lib.a(mango_dev_cache.o)
 .debug_abbrev  0x00009150      0x130 code\libs\dev_mg_lib.a(mbr.o)
 .debug_abbrev  0x00009280      0x1b8 code\libs\dev_mg_lib.a(dev_updata_mode.o)
 .debug_abbrev  0x00009438      0x18b code\libs\dev_mg_lib.a(dev_operate.o)
 .debug_abbrev  0x000095c3      0x1cc code\libs\dev_mg_lib.a(fat_io.o)
 .debug_abbrev  0x0000978f      0x235 code\libs\dev_mg_lib.a(fs_io.o)
 .debug_abbrev  0x000099c4      0x37e code\libs\dev_mg_lib.a(logic_dev_list.o)
 .debug_abbrev  0x00009d42      0x285 code\libs\dev_mg_lib.a(syd_io.o)
 .debug_abbrev  0x00009fc7      0x26d code\libs\dev_mg_lib.a(vfs.o)
 .debug_abbrev  0x0000a234      0x26d code\libs\libtff.a(ff_api.o)
 .debug_abbrev  0x0000a4a1      0x37f code\libs\libtff.a(tff.o)
 .debug_abbrev  0x0000a820      0x263 code\libs\sd.a(mango_dev_sd.o)
 .debug_abbrev  0x0000aa83      0x226 code\libs\sd.a(sd_controller_interface.o)
 .debug_abbrev  0x0000aca9       0xdb code\libs\sd.a(sd_global_var.o)
 .debug_abbrev  0x0000ad84      0x16e code\libs\sd.a(sd_host_read.o)
 .debug_abbrev  0x0000aef2      0x155 code\libs\sd.a(sd_host_read_end.o)
 .debug_abbrev  0x0000b047      0x128 code\libs\sd.a(sd_host_unmount.o)
 .debug_abbrev  0x0000b16f      0x15f code\libs\sd.a(sd_host_write.o)
 .debug_abbrev  0x0000b2ce      0x155 code\libs\sd.a(sd_host_write_end.o)
 .debug_abbrev  0x0000b423      0x19e code\libs\sd.a(sdmmc_init.o)
 .debug_abbrev  0x0000b5c1      0x128 code\libs\sd.a(suspend_sdmmc.o)
 .debug_abbrev  0x0000b6e9      0x150 code\libs\sd.a(sd_host_send_csd.o)
 .debug_abbrev  0x0000b839      0x137 code\libs\sd.a(sd_host_stop_trans.o)
 .debug_abbrev  0x0000b970      0x15f code\libs\sd.a(sd_host_hw.o)
 .debug_abbrev  0x0000bacf      0x126 code\libs\sd.a(sd_wait_idle.o)
 .debug_abbrev  0x0000bbf5      0x1a9 code\libs\sd.a(sdmmc_det.o)
 .debug_abbrev  0x0000bd9e      0x1e2 code\libs\sd.a(sd_host_reg.o)
 .debug_abbrev  0x0000bf80       0xff code\libs\sd.a(sd_read_start.o)
 .debug_abbrev  0x0000c07f       0xbf code\libs\sd.a(sd_send_command.o)
 .debug_abbrev  0x0000c13e       0xff code\libs\sd.a(sd_write_start.o)
 .debug_abbrev  0x0000c23d      0x13d code\libs\sd.a(sd_host_status.o)
 .debug_abbrev  0x0000c37a      0x106 code\libs\sd.a(sd_host_init.o)
 .debug_abbrev  0x0000c480      0x117 code\libs\sd.a(sd_host_mount.o)
 .debug_abbrev  0x0000c597      0x108 code\libs\sd.a(sd_host_timeout.o)
 .debug_abbrev  0x0000c69f      0x137 code\libs\sd.a(sd_init.o)
 .debug_abbrev  0x0000c7d6      0x12d code\libs\sd.a(sdmmc_host_set_bus_width.o)
 .debug_abbrev  0x0000c903      0x117 code\libs\sd.a(sdmmc_host_set_hispeed.o)
 .debug_abbrev  0x0000ca1a       0xf2 code\libs\sd.a(mmc_host_send_rca.o)
 .debug_abbrev  0x0000cb0c      0x137 code\libs\sd.a(mmc_host_set_bus_width.o)
 .debug_abbrev  0x0000cc43      0x137 code\libs\sd.a(mmc_host_set_hispeed.o)
 .debug_abbrev  0x0000cd7a       0x5d code\libs\sd.a(sd_host_all_send_cid.o)
 .debug_abbrev  0x0000cdd7       0x5d code\libs\sd.a(sd_host_reset.o)
 .debug_abbrev  0x0000ce34      0x126 code\libs\sd.a(sd_host_sd_status.o)
 .debug_abbrev  0x0000cf5a       0x5d code\libs\sd.a(sd_host_send_if_cond.o)
 .debug_abbrev  0x0000cfb7      0x137 code\libs\sd.a(sd_host_send_rca.o)
 .debug_abbrev  0x0000d0ee      0x101 code\libs\sd.a(sd_host_set_bus_width.o)
 .debug_abbrev  0x0000d1ef      0x11d code\libs\sd.a(sd_host_set_hispeed.o)
 .debug_abbrev  0x0000d30c      0x11f code\libs\sd.a(sd_host_switch_func.o)
 .debug_abbrev  0x0000d42b       0xf2 code\libs\sd.a(sd_select_card.o)
 .debug_abbrev  0x0000d51d      0x110 code\libs\sd.a(sd_send_scr.o)
 .debug_abbrev  0x0000d62d      0x133 code\libs\sd.a(sd_chk_ctl.o)
 .debug_abbrev  0x0000d760      0x137 code\libs\sd.a(sd_host_identification.o)
 .debug_abbrev  0x0000d897       0x5d code\libs\sd.a(mmc_host_send_op_cond.o)
 .debug_abbrev  0x0000d8f4       0xf2 code\libs\sd.a(sd_host_app_cmd.o)
 .debug_abbrev  0x0000d9e6      0x101 code\libs\sd.a(sd_host_send_op_cond.o)
 .debug_abbrev  0x0000dae7      0x29b code\libs\usb.a(mango_dev_usb_slave.o)
 .debug_abbrev  0x0000dd82      0x1bf code\libs\usb.a(usb_device_mount.o)
 .debug_abbrev  0x0000df41       0xaf code\libs\usb.a(usb_device_unmount.o)
 .debug_abbrev  0x0000dff0      0x175 code\libs\usb.a(usb_slave_mic_adc.o)
 .debug_abbrev  0x0000e165      0x1b7 code\libs\usb.a(usb_slave_spk_dac.o)
 .debug_abbrev  0x0000e31c      0x156 code\libs\usb.a(usbs_ctl_isr.o)
 .debug_abbrev  0x0000e472      0x137 code\libs\usb.a(usb_class_setting_libs.o)
 .debug_abbrev  0x0000e5a9      0x1ba code\libs\usb.a(usb_device_io.o)
 .debug_abbrev  0x0000e763      0x13a code\libs\usb.a(usb_hid_key.o)
 .debug_abbrev  0x0000e89d      0x224 code\libs\usb.a(usb_slave_ctl.o)
 .debug_abbrev  0x0000eac1      0x2fb code\libs\usb.a(usb_slave_scsi_libs.o)
 .debug_abbrev  0x0000edbc      0x1a1 code\libs\usb.a(usb_slave_sd.o)
 .debug_abbrev  0x0000ef5d       0xc2 code\libs\usb.a(usb_device_status.o)
 .debug_abbrev  0x0000f01f       0xb9 code\libs\usb.a(usb_slave_online.o)
 .debug_abbrev  0x0000f0d8      0x1cb code\libs\usb.a(mango_dev_usb.o)
 .debug_abbrev  0x0000f2a3      0x16c code\libs\usb.a(usb_global_var.o)
 .debug_abbrev  0x0000f40f      0x141 code\libs\usb.a(usb_host_mount.o)
 .debug_abbrev  0x0000f550      0x143 code\libs\usb.a(usb_host_read.o)
 .debug_abbrev  0x0000f693       0xfe code\libs\usb.a(usb_host_unmount.o)
 .debug_abbrev  0x0000f791      0x125 code\libs\usb.a(usb_host_write.o)
 .debug_abbrev  0x0000f8b6      0x10b code\libs\usb.a(usb_read_remain.o)
 .debug_abbrev  0x0000f9c1       0xf7 code\libs\usb.a(usb_suspend.o)
 .debug_abbrev  0x0000fab8      0x157 code\libs\usb.a(USB_Host_dev_enum_libs.o)
 .debug_abbrev  0x0000fc0f      0x125 code\libs\usb.a(usb_control_transfers.o)
 .debug_abbrev  0x0000fd34      0x148 code\libs\usb.a(usb_ctlXfer.o)
 .debug_abbrev  0x0000fe7c      0x132 code\libs\usb.a(usb_descriptor_parser.o)
 .debug_abbrev  0x0000ffae      0x14a code\libs\usb.a(usb_bulk_only_receive.o)
 .debug_abbrev  0x000100f8      0x141 code\libs\usb.a(usb_bulk_only_transfer.o)
 .debug_abbrev  0x00010239      0x150 code\libs\usb.a(usb_ufi_read10.o)
 .debug_abbrev  0x00010389      0x132 code\libs\usb.a(usb_ufi_write10.o)
 .debug_abbrev  0x000104bb      0x16c code\libs\usb.a(usbh_msd_enum.o)
 .debug_abbrev  0x00010627      0x10f code\libs\usb.a(usbh_msd_parser.o)
 .debug_abbrev  0x00010736      0x146 code\libs\usb.a(usb_host_reg_libs.o)
 .debug_abbrev  0x0001087c       0xdf code\libs\usb.a(usb_reg.o)
 .debug_abbrev  0x0001095b      0x14a code\libs\usb.a(usb_host_status.o)
 .debug_abbrev  0x00010aa5      0x12c code\libs\usb.a(usb_online.o)
 .debug_abbrev  0x00010bd1       0x88 code\libs\usb.a(Descriptor.o)
 .debug_abbrev  0x00010c59      0x141 code\libs\usb.a(set_descriptor_libs.o)
 .debug_abbrev  0x00010d9a      0x10f code\libs\usb.a(usb_host_timeout.o)
 .debug_abbrev  0x00010ea9      0x134 code\libs\usb.a(get_max_LUN.o)
 .debug_abbrev  0x00010fdd      0x10f code\libs\usb.a(usb_host_clear_feature.o)
 .debug_abbrev  0x000110ec       0xf3 code\libs\usb.a(CBW_init.o)
 .debug_abbrev  0x000111df      0x134 code\libs\usb.a(usb_bulk_only_send.o)
 .debug_abbrev  0x00011313      0x156 code\libs\usb.a(usb_host_scsi_cmd_libs.o)
 .debug_abbrev  0x00011469      0x23c code\libs\librtos_bt15.a(os_core.o)
 .debug_abbrev  0x000116a5      0x180 code\libs\librtos_bt15.a(os_mutex.o)
 .debug_abbrev  0x00011825      0x1d3 code\libs\librtos_bt15.a(os_sem.o)
 .debug_abbrev  0x000119f8      0x338 code\libs\librtos_bt15.a(os_task.o)
 .debug_abbrev  0x00011d30      0x170 code\libs\librtos_bt15.a(os_time.o)
 .debug_abbrev  0x00011ea0       0x14 code\libs\librtos_bt15.a(os_cpu.o)
 .debug_abbrev  0x00011eb4      0x15e code\libs\librtos_bt15.a(os_cpu_c.o)
 .debug_abbrev  0x00012012      0x38d code\libs\lib_cache_vm_bt15.a(vm.o)
 .debug_abbrev  0x0001239f      0x242 code\libs\sydf_ac46.a(syd_file.o)
 .debug_abbrev  0x000125e1      0x27b code\libs\lib_aac_decode.a(aac_main.o)
 .debug_abbrev  0x0001285c       0xb8 code\libs\lib_aac_decode.a(common.o)
 .debug_abbrev  0x00012914      0x20c code\libs\lib_aac_decode.a(decoder.o)
 .debug_abbrev  0x00012b20      0x1b5 code\libs\lib_aac_decode.a(filtbank.o)
 .debug_abbrev  0x00012cd5      0x204 code\libs\lib_aac_decode.a(mdct.o)
 .debug_abbrev  0x00012ed9      0x15a code\libs\lib_aac_decode.a(output.o)
 .debug_abbrev  0x00013033      0x3cb code\libs\lib_aac_decode.a(syntax.o)
 .debug_abbrev  0x000133fe      0x19a code\libs\lib_aac_decode.a(bits.o)
 .debug_abbrev  0x00013598      0x26b code\libs\lib_aac_decode.a(cfft.o)
 .debug_abbrev  0x00013803      0x2d7 code\libs\lib_aac_decode.a(huffman.o)
 .debug_abbrev  0x00013ada       0xd0 code\libs\lib_aac_decode.a(pulse.o)
 .debug_abbrev  0x00013baa      0x295 code\libs\lib_aac_decode.a(specrec.o)
 .debug_abbrev  0x00013e3f      0x243 code\libs\lib_aac_decode.a(tns.o)
 .debug_abbrev  0x00014082      0x199 code\libs\lib_aac_decode.a(is.o)
 .debug_abbrev  0x0001421b      0x152 code\libs\lib_aac_decode.a(ms.o)
 .debug_abbrev  0x0001436d       0x8b code\libs\clk_ac46.a(clock_api.o)
 .debug_abbrev  0x000143f8      0x18f code\libs\clk_ac46.a(clock_moudle.o)
 .debug_abbrev  0x00014587      0x1fe code\libs\clk_ac46.a(clock_app.o)
 .debug_abbrev  0x00014785      0x1b5 code\libs\clk_ac46.a(pll_moudle.o)
 .debug_abbrev  0x0001493a      0x2fd code\libs\lib_flac_decode.a(mtst_flac.o)
 .debug_abbrev  0x00014c37      0x2a9 code\libs\lib_flac_decode.a(flacdec.o)
 .debug_abbrev  0x00014ee0      0x370 code\libs\lib_encode.a(encode.o)
 .debug_abbrev  0x00015250      0x1d5 code\libs\lib_encode.a(dev_write_api.o)
 .debug_abbrev  0x00015425       0x7a C:\JL\dv10\lib\libc.a(lib_a-memcmp.o)
 .debug_abbrev  0x0001549f       0xa6 C:\JL\dv10\lib\libc.a(lib_a-memcpy.o)
 .debug_abbrev  0x00015545       0xa6 C:\JL\dv10\lib\libc.a(lib_a-memmove.o)
 .debug_abbrev  0x000155eb       0xa9 C:\JL\dv10\lib\libc.a(lib_a-memset.o)
 .debug_abbrev  0x00015694      0x192 C:\JL\dv10\lib\libc.a(lib_a-rand.o)
 .debug_abbrev  0x00015826       0x6f C:\JL\dv10\lib\libc.a(lib_a-strcmp.o)
 .debug_abbrev  0x00015895       0x7e C:\JL\dv10\lib\libc.a(lib_a-strcpy.o)
 .debug_abbrev  0x00015913       0x7c C:\JL\dv10\lib\libc.a(lib_a-strlen.o)
 .debug_abbrev  0x0001598f      0x19a C:\JL\dv10\lib\libc.a(lib_a-strstr.o)
 .debug_abbrev  0x00015b29      0x164 C:\JL\dv10\lib\libc.a(lib_a-impure.o)
 .debug_abbrev  0x00015c8d       0xb5 C:\JL\dv10\lib\libc.a(lib_a-memchr.o)
 .debug_abbrev  0x00015d42       0x8b C:\JL\dv10\lib\libc.a(lib_a-strchr.o)
 .debug_abbrev  0x00015dcd       0x14 C:\JL\dv10\lib\libgcc.a(_umodsi3.o)
 .debug_abbrev  0x00015de1       0x14 C:\JL\dv10\lib\libgcc.a(_modsi3.o)
 .debug_abbrev  0x00015df5       0x14 C:\JL\dv10\lib\libgcc.a(_muldi3.o)
 .debug_abbrev  0x00015e09       0x14 C:\JL\dv10\lib\libgcc.a(_umulsi3_highpart.o)
 .debug_abbrev  0x00015e1d       0xfd C:\JL\dv10\lib\libgcc.a(_lshrdi3.o)
 .debug_abbrev  0x00015f1a       0xfd C:\JL\dv10\lib\libgcc.a(_ashldi3.o)
 .debug_abbrev  0x00016017      0x19c C:\JL\dv10\lib\libgcc.a(_divdi3.o)
 .debug_abbrev  0x000161b3      0x196 C:\JL\dv10\lib\libgcc.a(_udivdi3.o)
 .debug_abbrev  0x00016349      0x1b7 C:\JL\dv10\lib\libgcc.a(_umoddi3.o)
 .debug_abbrev  0x00016500      0x11b C:\JL\dv10\lib\libgcc.a(divsf3.o)
 .debug_abbrev  0x0001661b      0x12a C:\JL\dv10\lib\libgcc.a(subsf3.o)
 .debug_abbrev  0x00016745      0x125 C:\JL\dv10\lib\libgcc.a(fixsfsi.o)
 .debug_abbrev  0x0001686a      0x114 C:\JL\dv10\lib\libgcc.a(floatsisf.o)
 .debug_abbrev  0x0001697e       0x61 C:\JL\dv10\lib\libgcc.a(_clz.o)
 .debug_abbrev  0x000169df       0xbd C:\JL\dv10\lib\libgcc.a(_clzsi2.o)

.debug_info     0x00000000    0x738b1
 .debug_info    0x00000000      0x1da obj\Debug\\code\apps\bt\aec\aec_api.o
 .debug_info    0x000001da      0x81f obj\Debug\\code\apps\bt\btstack\bt_configs_user.o
 .debug_info    0x000009f9     0x2044 obj\Debug\\code\apps\bt\btstack\bt_key_deal.o
 .debug_info    0x00002a3d      0x4a6 obj\Debug\\code\apps\bt\btstack\bt_key_msg.o
 .debug_info    0x00002ee3      0x313 obj\Debug\\code\apps\bt\btstack\fcc_test.o
 .debug_info    0x000031f6     0x1c10 obj\Debug\\code\apps\fm\fm_api.o
 .debug_info    0x00004e06      0x4a6 obj\Debug\\code\apps\fm\fm_key.o
 .debug_info    0x000052ac      0x17c obj\Debug\\code\apps\fm\fm_prompt.o
 .debug_info    0x00005428     0x1c5c obj\Debug\\code\apps\fm\fm_radio.o
 .debug_info    0x00007084      0xb2c obj\Debug\\code\apps\idle\idle.o
 .debug_info    0x00007bb0      0x4a6 obj\Debug\\code\apps\idle\idle_key.o
 .debug_info    0x00008056      0x3c9 obj\Debug\\code\apps\linein\dev_linein.o
 .debug_info    0x0000841f     0x1b0e obj\Debug\\code\apps\linein\linein.o
 .debug_info    0x00009f2d      0x4a6 obj\Debug\\code\apps\linein\linein_key.o
 .debug_info    0x0000a3d3      0x177 obj\Debug\\code\apps\linein\linein_prompt.o
 .debug_info    0x0000a54a     0x1975 obj\Debug\\code\apps\main\main.o
 .debug_info    0x0000bebf      0x4a6 obj\Debug\\code\apps\main\main_key.o
 .debug_info    0x0000c365      0x3e8 obj\Debug\\code\apps\main\vm_api.o
 .debug_info    0x0000c74d      0x60e obj\Debug\\code\apps\music\ef_api.o
 .debug_info    0x0000cd5b     0x2d52 obj\Debug\\code\apps\music\music.o
 .debug_info    0x0000faad      0xf9d obj\Debug\\code\apps\music\music_info.o
 .debug_info    0x00010a4a      0x4a6 obj\Debug\\code\apps\music\music_key.o
 .debug_info    0x00010ef0      0xe85 obj\Debug\\code\apps\music\music_prompt.o
 .debug_info    0x00011d75     0x1919 obj\Debug\\code\apps\music\play_sel.o
 .debug_info    0x0001368e      0x4a6 obj\Debug\\code\apps\record\rec_key.o
 .debug_info    0x00013b34     0x1b04 obj\Debug\\code\apps\record\record.o
 .debug_info    0x00015638      0x1cf obj\Debug\\code\apps\rtc\irtc.o
 .debug_info    0x00015807      0x20e obj\Debug\\code\apps\rtc\rtc.o
 .debug_info    0x00015a15      0x12a obj\Debug\\code\apps\rtc\rtc_key.o
 .debug_info    0x00015b3f      0x1cf obj\Debug\\code\apps\rtc\rtc_low_power.o
 .debug_info    0x00015d0e      0x177 obj\Debug\\code\apps\rtc\rtc_prompt.o
 .debug_info    0x00015e85      0x1cf obj\Debug\\code\apps\rtc\rtc_setting.o
 .debug_info    0x00016054     0x100f obj\Debug\\code\apps\usb_device\dev_pc.o
 .debug_info    0x00017063      0x17c obj\Debug\\code\apps\usb_device\pc_prompt.o
 .debug_info    0x000171df     0x1573 obj\Debug\\code\apps\usb_device\usb_device.o
 .debug_info    0x00018752      0x4a6 obj\Debug\\code\apps\usb_device\usb_key.o
 .debug_info    0x00018bf8      0x17b obj\Debug\\code\common\ASCII_lib.o
 .debug_info    0x00018d73      0x2a1 obj\Debug\\code\common\common.o
 .debug_info    0x00019014      0x7bd obj\Debug\\code\common\dev_manage\dev_ctl.o
 .debug_info    0x000197d1        0x0 obj\Debug\\code\common\fcvt.o
 .debug_info    0x000197d1      0xb95 obj\Debug\\code\common\file_operate\file_operate.o
 .debug_info    0x0001a366      0x3a9 obj\Debug\\code\common\os_api\os_api.o
 .debug_info    0x0001a70f     0x104c obj\Debug\\code\common\os_api\task_manage.o
 .debug_info    0x0001b75b      0x675 obj\Debug\\code\common\printf-stdarg.o
 .debug_info    0x0001bdd0     0x1622 obj\Debug\\code\common\ui\led7_drv.o
 .debug_info    0x0001d3f2      0x7a5 obj\Debug\\code\common\ui\led_ui_api.o
 .debug_info    0x0001db97      0x243 obj\Debug\\code\common\ui\ui_common.o
 .debug_info    0x0001ddda      0x375 obj\Debug\\code\common\voice_prompt\voice_prompt.o
 .debug_info    0x0001e14f      0x5ce obj\Debug\\code\cpu\ac46\board\board_bt15_v0.o
 .debug_info    0x0001e71d      0x12a obj\Debug\\code\cpu\ac46\driver\M62429.o
 .debug_info    0x0001e847      0x26e obj\Debug\\code\cpu\ac46\driver\clock.o
 .debug_info    0x0001eab5      0xa79 obj\Debug\\code\cpu\ac46\driver\dac.o
 .debug_info    0x0001f52e      0x12a obj\Debug\\code\cpu\ac46\driver\encoder.o
 .debug_info    0x0001f658      0x1c2 obj\Debug\\code\cpu\ac46\driver\interrupt_isr.o
 .debug_info    0x0001f81a      0x81a obj\Debug\\code\cpu\ac46\driver\key.o
 .debug_info    0x00020034      0x315 obj\Debug\\code\cpu\ac46\driver\key_drv_ad.o
 .debug_info    0x00020349      0x12a obj\Debug\\code\cpu\ac46\driver\key_drv_io.o
 .debug_info    0x00020473      0x3a3 obj\Debug\\code\cpu\ac46\driver\key_drv_ir.o
 .debug_info    0x00020816      0x12a obj\Debug\\code\cpu\ac46\driver\key_drv_tch.o
 .debug_info    0x00020940      0x369 obj\Debug\\code\cpu\ac46\driver\key_voice.o
 .debug_info    0x00020ca9      0x12a obj\Debug\\code\cpu\ac46\driver\kok_detect.o
 .debug_info    0x00020dd3      0x6db obj\Debug\\code\cpu\ac46\driver\ladc.o
 .debug_info    0x000214ae      0x2e2 obj\Debug\\code\cpu\ac46\driver\led.o
 .debug_info    0x00021790      0x219 obj\Debug\\code\cpu\ac46\driver\low_power.o
 .debug_info    0x000219a9      0x12a obj\Debug\\code\cpu\ac46\driver\pt2313.o
 .debug_info    0x00021ad3      0x6de obj\Debug\\code\cpu\ac46\driver\sys_detect.o
 .debug_info    0x000221b1      0xd8c obj\Debug\\code\cpu\ac46\driver\timer.o
 .debug_info    0x00022f3d      0x73f obj\Debug\\code\cpu\ac46\driver\uart.o
 .debug_info    0x0002367c     0x12cc code\libs\dec_lib_ac46.a(music_api.o)
 .debug_info    0x00024948      0x2fd code\libs\dec_lib_ac46.a(sup_dec_op.o)
 .debug_info    0x00024c45     0x155d code\libs\dec_lib_ac46.a(decoder_phy.o)
 .debug_info    0x000261a2      0x46f code\libs\lib_dac.a(dac_init.o)
 .debug_info    0x00026611      0xb89 code\libs\lib_dac.a(dac_channel.o)
 .debug_info    0x0002719a      0x11e code\libs\sys_cfg_ac46.a(pll.o)
 .debug_info    0x000272b8       0x62 code\libs\sys_cfg_ac46.a(reg.o)
 .debug_info    0x0002731a       0x6a code\libs\sys_cfg_ac46.a(startup.o)
 .debug_info    0x00027384      0x464 code\libs\sys_cfg_ac46.a(system_cfg_file.o)
 .debug_info    0x000277e8      0x3d6 code\libs\sys_cfg_ac46.a(hwi.o)
 .debug_info    0x00027bbe      0x460 code\libs\sys_cfg_ac46.a(irq.o)
 .debug_info    0x0002801e      0x620 code\libs\sys_cfg_ac46.a(system_cfg.o)
 .debug_info    0x0002863e      0xe7e code\libs\aec_ac46.a(aec.o)
 .debug_info    0x000294bc      0x218 code\libs\aec_ac46.a(aec_tst_sd.o)
 .debug_info    0x000296d4      0x327 code\libs\aec_ac46.a(cdn3_btsyn.o)
 .debug_info    0x000299fb      0x26e code\libs\aec_ac46.a(AGC.o)
 .debug_info    0x00029c69      0x25c code\libs\libDAGC.a(DAGC.o)
 .debug_info    0x00029ec5      0x320 code\libs\libDAGC.a(AGC.o)
 .debug_info    0x0002a1e5      0xa21 code\libs\lib_wav_decode.a(testwav.o)
 .debug_info    0x0002ac06      0x5f3 code\libs\lib_wav_decode.a(wavdec_api.o)
 .debug_info    0x0002b1f9      0x714 code\libs\lib_wav_decode.a(ima_adpcm.o)
 .debug_info    0x0002b90d      0x711 code\libs\lib_wav_decode.a(msadpcmdec.o)
 .debug_info    0x0002c01e      0xd5b code\libs\ef_api_ac46.a(audio_ef.o)
 .debug_info    0x0002cd79     0x136d code\libs\dev_mg_lib.a(drv_manage.o)
 .debug_info    0x0002e0e6      0x6aa code\libs\dev_mg_lib.a(mango_dev_cache.o)
 .debug_info    0x0002e790      0x4b5 code\libs\dev_mg_lib.a(mbr.o)
 .debug_info    0x0002ec45      0x8b4 code\libs\dev_mg_lib.a(dev_updata_mode.o)
 .debug_info    0x0002f4f9      0x73a code\libs\dev_mg_lib.a(dev_operate.o)
 .debug_info    0x0002fc33      0xd83 code\libs\dev_mg_lib.a(fat_io.o)
 .debug_info    0x000309b6     0x12c2 code\libs\dev_mg_lib.a(fs_io.o)
 .debug_info    0x00031c78     0x147e code\libs\dev_mg_lib.a(logic_dev_list.o)
 .debug_info    0x000330f6      0xbb4 code\libs\dev_mg_lib.a(syd_io.o)
 .debug_info    0x00033caa     0x1117 code\libs\dev_mg_lib.a(vfs.o)
 .debug_info    0x00034dc1      0xe3b code\libs\libtff.a(ff_api.o)
 .debug_info    0x00035bfc     0x1c96 code\libs\libtff.a(tff.o)
 .debug_info    0x00037892      0xe2f code\libs\sd.a(mango_dev_sd.o)
 .debug_info    0x000386c1      0xaf1 code\libs\sd.a(sd_controller_interface.o)
 .debug_info    0x000391b2      0x450 code\libs\sd.a(sd_global_var.o)
 .debug_info    0x00039602      0x5fb code\libs\sd.a(sd_host_read.o)
 .debug_info    0x00039bfd      0x589 code\libs\sd.a(sd_host_read_end.o)
 .debug_info    0x0003a186      0x56f code\libs\sd.a(sd_host_unmount.o)
 .debug_info    0x0003a6f5      0x5ec code\libs\sd.a(sd_host_write.o)
 .debug_info    0x0003ace1      0x589 code\libs\sd.a(sd_host_write_end.o)
 .debug_info    0x0003b26a      0x689 code\libs\sd.a(sdmmc_init.o)
 .debug_info    0x0003b8f3      0x554 code\libs\sd.a(suspend_sdmmc.o)
 .debug_info    0x0003be47      0x569 code\libs\sd.a(sd_host_send_csd.o)
 .debug_info    0x0003c3b0      0x562 code\libs\sd.a(sd_host_stop_trans.o)
 .debug_info    0x0003c912      0x5ea code\libs\sd.a(sd_host_hw.o)
 .debug_info    0x0003cefc      0x68c code\libs\sd.a(sd_wait_idle.o)
 .debug_info    0x0003d588      0x5b2 code\libs\sd.a(sdmmc_det.o)
 .debug_info    0x0003db3a      0xb2a code\libs\sd.a(sd_host_reg.o)
 .debug_info    0x0003e664      0x43f code\libs\sd.a(sd_read_start.o)
 .debug_info    0x0003eaa3      0x1fd code\libs\sd.a(sd_send_command.o)
 .debug_info    0x0003eca0      0x43f code\libs\sd.a(sd_write_start.o)
 .debug_info    0x0003f0df      0x52f code\libs\sd.a(sd_host_status.o)
 .debug_info    0x0003f60e      0x43c code\libs\sd.a(sd_host_init.o)
 .debug_info    0x0003fa4a      0x500 code\libs\sd.a(sd_host_mount.o)
 .debug_info    0x0003ff4a      0x4e5 code\libs\sd.a(sd_host_timeout.o)
 .debug_info    0x0004042f      0x58f code\libs\sd.a(sd_init.o)
 .debug_info    0x000409be      0x583 code\libs\sd.a(sdmmc_host_set_bus_width.o)
 .debug_info    0x00040f41      0x547 code\libs\sd.a(sdmmc_host_set_hispeed.o)
 .debug_info    0x00041488      0x424 code\libs\sd.a(mmc_host_send_rca.o)
 .debug_info    0x000418ac      0x4a0 code\libs\sd.a(mmc_host_set_bus_width.o)
 .debug_info    0x00041d4c      0x4a0 code\libs\sd.a(mmc_host_set_hispeed.o)
 .debug_info    0x000421ec       0xa3 code\libs\sd.a(sd_host_all_send_cid.o)
 .debug_info    0x0004228f       0xa3 code\libs\sd.a(sd_host_reset.o)
 .debug_info    0x00042332      0x509 code\libs\sd.a(sd_host_sd_status.o)
 .debug_info    0x0004283b       0xa3 code\libs\sd.a(sd_host_send_if_cond.o)
 .debug_info    0x000428de      0x4a0 code\libs\sd.a(sd_host_send_rca.o)
 .debug_info    0x00042d7e      0x443 code\libs\sd.a(sd_host_set_bus_width.o)
 .debug_info    0x000431c1      0x463 code\libs\sd.a(sd_host_set_hispeed.o)
 .debug_info    0x00043624      0x461 code\libs\sd.a(sd_host_switch_func.o)
 .debug_info    0x00043a85      0x433 code\libs\sd.a(sd_select_card.o)
 .debug_info    0x00043eb8      0x458 code\libs\sd.a(sd_send_scr.o)
 .debug_info    0x00044310      0x478 code\libs\sd.a(sd_chk_ctl.o)
 .debug_info    0x00044788      0x5ad code\libs\sd.a(sd_host_identification.o)
 .debug_info    0x00044d35       0xa3 code\libs\sd.a(mmc_host_send_op_cond.o)
 .debug_info    0x00044dd8      0x424 code\libs\sd.a(sd_host_app_cmd.o)
 .debug_info    0x000451fc      0x452 code\libs\sd.a(sd_host_send_op_cond.o)
 .debug_info    0x0004564e      0xde9 code\libs\usb.a(mango_dev_usb_slave.o)
 .debug_info    0x00046437      0xc0c code\libs\usb.a(usb_device_mount.o)
 .debug_info    0x00047043      0x165 code\libs\usb.a(usb_device_unmount.o)
 .debug_info    0x000471a8      0x7b1 code\libs\usb.a(usb_slave_mic_adc.o)
 .debug_info    0x00047959      0x862 code\libs\usb.a(usb_slave_spk_dac.o)
 .debug_info    0x000481bb      0x73d code\libs\usb.a(usbs_ctl_isr.o)
 .debug_info    0x000488f8      0x6e6 code\libs\usb.a(usb_class_setting_libs.o)
 .debug_info    0x00048fde      0x8bf code\libs\usb.a(usb_device_io.o)
 .debug_info    0x0004989d      0x70c code\libs\usb.a(usb_hid_key.o)
 .debug_info    0x00049fa9      0xea7 code\libs\usb.a(usb_slave_ctl.o)
 .debug_info    0x0004ae50     0x12f4 code\libs\usb.a(usb_slave_scsi_libs.o)
 .debug_info    0x0004c144      0xb45 code\libs\usb.a(usb_slave_sd.o)
 .debug_info    0x0004cc89      0x1d1 code\libs\usb.a(usb_device_status.o)
 .debug_info    0x0004ce5a      0x125 code\libs\usb.a(usb_slave_online.o)
 .debug_info    0x0004cf7f      0xaec code\libs\usb.a(mango_dev_usb.o)
 .debug_info    0x0004da6b      0xd60 code\libs\usb.a(usb_global_var.o)
 .debug_info    0x0004e7cb      0x5be code\libs\usb.a(usb_host_mount.o)
 .debug_info    0x0004ed89      0x5b9 code\libs\usb.a(usb_host_read.o)
 .debug_info    0x0004f342      0x4ac code\libs\usb.a(usb_host_unmount.o)
 .debug_info    0x0004f7ee      0x57f code\libs\usb.a(usb_host_write.o)
 .debug_info    0x0004fd6d      0x73e code\libs\usb.a(usb_read_remain.o)
 .debug_info    0x000504ab      0x497 code\libs\usb.a(usb_suspend.o)
 .debug_info    0x00050942      0x637 code\libs\usb.a(USB_Host_dev_enum_libs.o)
 .debug_info    0x00050f79      0x555 code\libs\usb.a(usb_control_transfers.o)
 .debug_info    0x000514ce      0x790 code\libs\usb.a(usb_ctlXfer.o)
 .debug_info    0x00051c5e      0x4fb code\libs\usb.a(usb_descriptor_parser.o)
 .debug_info    0x00052159      0x5ac code\libs\usb.a(usb_bulk_only_receive.o)
 .debug_info    0x00052705      0x781 code\libs\usb.a(usb_bulk_only_transfer.o)
 .debug_info    0x00052e86      0x78b code\libs\usb.a(usb_ufi_read10.o)
 .debug_info    0x00053611      0x6b9 code\libs\usb.a(usb_ufi_write10.o)
 .debug_info    0x00053cca      0x8e3 code\libs\usb.a(usbh_msd_enum.o)
 .debug_info    0x000545ad      0x4ca code\libs\usb.a(usbh_msd_parser.o)
 .debug_info    0x00054a77      0x417 code\libs\usb.a(usb_host_reg_libs.o)
 .debug_info    0x00054e8e      0x18d code\libs\usb.a(usb_reg.o)
 .debug_info    0x0005501b      0x5a8 code\libs\usb.a(usb_host_status.o)
 .debug_info    0x000555c3      0x26b code\libs\usb.a(usb_online.o)
 .debug_info    0x0005582e      0x324 code\libs\usb.a(Descriptor.o)
 .debug_info    0x00055b52      0x82e code\libs\usb.a(set_descriptor_libs.o)
 .debug_info    0x00056380      0x544 code\libs\usb.a(usb_host_timeout.o)
 .debug_info    0x000568c4      0x56f code\libs\usb.a(get_max_LUN.o)
 .debug_info    0x00056e33      0x4ac code\libs\usb.a(usb_host_clear_feature.o)
 .debug_info    0x000572df      0x676 code\libs\usb.a(CBW_init.o)
 .debug_info    0x00057955      0x591 code\libs\usb.a(usb_bulk_only_send.o)
 .debug_info    0x00057ee6      0x75c code\libs\usb.a(usb_host_scsi_cmd_libs.o)
 .debug_info    0x00058642      0x7b5 code\libs\librtos_bt15.a(os_core.o)
 .debug_info    0x00058df7      0x666 code\libs\librtos_bt15.a(os_mutex.o)
 .debug_info    0x0005945d      0x615 code\libs\librtos_bt15.a(os_sem.o)
 .debug_info    0x00059a72     0x1082 code\libs\librtos_bt15.a(os_task.o)
 .debug_info    0x0005aaf4      0x573 code\libs\librtos_bt15.a(os_time.o)
 .debug_info    0x0005b067       0x6c code\libs\librtos_bt15.a(os_cpu.o)
 .debug_info    0x0005b0d3      0x3ca code\libs\librtos_bt15.a(os_cpu_c.o)
 .debug_info    0x0005b49d     0x177c code\libs\lib_cache_vm_bt15.a(vm.o)
 .debug_info    0x0005cc19      0x950 code\libs\sydf_ac46.a(syd_file.o)
 .debug_info    0x0005d569     0x13ee code\libs\lib_aac_decode.a(aac_main.o)
 .debug_info    0x0005e957      0x278 code\libs\lib_aac_decode.a(common.o)
 .debug_info    0x0005ebcf     0x1136 code\libs\lib_aac_decode.a(decoder.o)
 .debug_info    0x0005fd05     0x109c code\libs\lib_aac_decode.a(filtbank.o)
 .debug_info    0x00060da1     0x1032 code\libs\lib_aac_decode.a(mdct.o)
 .debug_info    0x00061dd3      0x753 code\libs\lib_aac_decode.a(output.o)
 .debug_info    0x00062526     0x212e code\libs\lib_aac_decode.a(syntax.o)
 .debug_info    0x00064654      0x3c1 code\libs\lib_aac_decode.a(bits.o)
 .debug_info    0x00064a15      0x758 code\libs\lib_aac_decode.a(cfft.o)
 .debug_info    0x0006516d      0xf28 code\libs\lib_aac_decode.a(huffman.o)
 .debug_info    0x00066095      0x46d code\libs\lib_aac_decode.a(pulse.o)
 .debug_info    0x00066502     0x161c code\libs\lib_aac_decode.a(specrec.o)
 .debug_info    0x00067b1e      0x9d9 code\libs\lib_aac_decode.a(tns.o)
 .debug_info    0x000684f7      0x65b code\libs\lib_aac_decode.a(is.o)
 .debug_info    0x00068b52      0x56b code\libs\lib_aac_decode.a(ms.o)
 .debug_info    0x000690bd      0x127 code\libs\clk_ac46.a(clock_api.o)
 .debug_info    0x000691e4      0x762 code\libs\clk_ac46.a(clock_moudle.o)
 .debug_info    0x00069946      0x7d1 code\libs\clk_ac46.a(clock_app.o)
 .debug_info    0x0006a117      0x5c5 code\libs\clk_ac46.a(pll_moudle.o)
 .debug_info    0x0006a6dc      0xedf code\libs\lib_flac_decode.a(mtst_flac.o)
 .debug_info    0x0006b5bb     0x11a0 code\libs\lib_flac_decode.a(flacdec.o)
 .debug_info    0x0006c75b     0x1c77 code\libs\lib_encode.a(encode.o)
 .debug_info    0x0006e3d2      0xe55 code\libs\lib_encode.a(dev_write_api.o)
 .debug_info    0x0006f227      0x10c C:\JL\dv10\lib\libc.a(lib_a-memcmp.o)
 .debug_info    0x0006f333      0x12a C:\JL\dv10\lib\libc.a(lib_a-memcpy.o)
 .debug_info    0x0006f45d      0x12a C:\JL\dv10\lib\libc.a(lib_a-memmove.o)
 .debug_info    0x0006f587      0x111 C:\JL\dv10\lib\libc.a(lib_a-memset.o)
 .debug_info    0x0006f698      0x983 C:\JL\dv10\lib\libc.a(lib_a-rand.o)
 .debug_info    0x0007001b       0xd6 C:\JL\dv10\lib\libc.a(lib_a-strcmp.o)
 .debug_info    0x000700f1      0x109 C:\JL\dv10\lib\libc.a(lib_a-strcpy.o)
 .debug_info    0x000701fa       0xd6 C:\JL\dv10\lib\libc.a(lib_a-strlen.o)
 .debug_info    0x000702d0      0x399 C:\JL\dv10\lib\libc.a(lib_a-strstr.o)
 .debug_info    0x00070669      0x961 C:\JL\dv10\lib\libc.a(lib_a-impure.o)
 .debug_info    0x00070fca      0x121 C:\JL\dv10\lib\libc.a(lib_a-memchr.o)
 .debug_info    0x000710eb      0x10b C:\JL\dv10\lib\libc.a(lib_a-strchr.o)
 .debug_info    0x000711f6       0xb1 C:\JL\dv10\lib\libgcc.a(_umodsi3.o)
 .debug_info    0x000712a7       0xb1 C:\JL\dv10\lib\libgcc.a(_modsi3.o)
 .debug_info    0x00071358       0xb1 C:\JL\dv10\lib\libgcc.a(_muldi3.o)
 .debug_info    0x00071409       0xb1 C:\JL\dv10\lib\libgcc.a(_umulsi3_highpart.o)
 .debug_info    0x000714ba      0x191 C:\JL\dv10\lib\libgcc.a(_lshrdi3.o)
 .debug_info    0x0007164b      0x191 C:\JL\dv10\lib\libgcc.a(_ashldi3.o)
 .debug_info    0x000717dc      0x767 C:\JL\dv10\lib\libgcc.a(_divdi3.o)
 .debug_info    0x00071f43      0x739 C:\JL\dv10\lib\libgcc.a(_udivdi3.o)
 .debug_info    0x0007267c      0x793 C:\JL\dv10\lib\libgcc.a(_umoddi3.o)
 .debug_info    0x00072e0f      0x2a8 C:\JL\dv10\lib\libgcc.a(divsf3.o)
 .debug_info    0x000730b7      0x2c0 C:\JL\dv10\lib\libgcc.a(subsf3.o)
 .debug_info    0x00073377      0x190 C:\JL\dv10\lib\libgcc.a(fixsfsi.o)
 .debug_info    0x00073507      0x1b6 C:\JL\dv10\lib\libgcc.a(floatsisf.o)
 .debug_info    0x000736bd       0xbb C:\JL\dv10\lib\libgcc.a(_clz.o)
 .debug_info    0x00073778      0x139 C:\JL\dv10\lib\libgcc.a(_clzsi2.o)

.debug_line     0x00000000    0x18076
 .debug_line    0x00000000       0xdc obj\Debug\\code\apps\bt\aec\aec_api.o
 .debug_line    0x000000dc      0x18c obj\Debug\\code\apps\bt\btstack\bt_configs_user.o
 .debug_line    0x00000268      0x4be obj\Debug\\code\apps\bt\btstack\bt_key_deal.o
 .debug_line    0x00000726       0xb0 obj\Debug\\code\apps\bt\btstack\bt_key_msg.o
 .debug_line    0x000007d6      0x120 obj\Debug\\code\apps\bt\btstack\fcc_test.o
 .debug_line    0x000008f6      0x444 obj\Debug\\code\apps\fm\fm_api.o
 .debug_line    0x00000d3a       0xa4 obj\Debug\\code\apps\fm\fm_key.o
 .debug_line    0x00000dde       0xb0 obj\Debug\\code\apps\fm\fm_prompt.o
 .debug_line    0x00000e8e      0x3e2 obj\Debug\\code\apps\fm\fm_radio.o
 .debug_line    0x00001270      0x1c7 obj\Debug\\code\apps\idle\idle.o
 .debug_line    0x00001437       0xa8 obj\Debug\\code\apps\idle\idle_key.o
 .debug_line    0x000014df      0x145 obj\Debug\\code\apps\linein\dev_linein.o
 .debug_line    0x00001624      0x3bd obj\Debug\\code\apps\linein\linein.o
 .debug_line    0x000019e1       0xac obj\Debug\\code\apps\linein\linein_key.o
 .debug_line    0x00001a8d       0xb8 obj\Debug\\code\apps\linein\linein_prompt.o
 .debug_line    0x00001b45      0x396 obj\Debug\\code\apps\main\main.o
 .debug_line    0x00001edb       0xa8 obj\Debug\\code\apps\main\main_key.o
 .debug_line    0x00001f83      0x148 obj\Debug\\code\apps\main\vm_api.o
 .debug_line    0x000020cb      0x145 obj\Debug\\code\apps\music\ef_api.o
 .debug_line    0x00002210      0x703 obj\Debug\\code\apps\music\music.o
 .debug_line    0x00002913      0x1b5 obj\Debug\\code\apps\music\music_info.o
 .debug_line    0x00002ac8       0xaa obj\Debug\\code\apps\music\music_key.o
 .debug_line    0x00002b72      0x1a1 obj\Debug\\code\apps\music\music_prompt.o
 .debug_line    0x00002d13      0x355 obj\Debug\\code\apps\music\play_sel.o
 .debug_line    0x00003068       0xa9 obj\Debug\\code\apps\record\rec_key.o
 .debug_line    0x00003111      0x38f obj\Debug\\code\apps\record\record.o
 .debug_line    0x000034a0       0x9b obj\Debug\\code\apps\rtc\irtc.o
 .debug_line    0x0000353b       0xa4 obj\Debug\\code\apps\rtc\rtc.o
 .debug_line    0x000035df       0x82 obj\Debug\\code\apps\rtc\rtc_key.o
 .debug_line    0x00003661       0x9b obj\Debug\\code\apps\rtc\rtc_low_power.o
 .debug_line    0x000036fc       0xb0 obj\Debug\\code\apps\rtc\rtc_prompt.o
 .debug_line    0x000037ac       0x9b obj\Debug\\code\apps\rtc\rtc_setting.o
 .debug_line    0x00003847      0x1fa obj\Debug\\code\apps\usb_device\dev_pc.o
 .debug_line    0x00003a41       0xb8 obj\Debug\\code\apps\usb_device\pc_prompt.o
 .debug_line    0x00003af9      0x2c7 obj\Debug\\code\apps\usb_device\usb_device.o
 .debug_line    0x00003dc0       0xad obj\Debug\\code\apps\usb_device\usb_key.o
 .debug_line    0x00003e6d       0xc2 obj\Debug\\code\common\ASCII_lib.o
 .debug_line    0x00003f2f       0xb4 obj\Debug\\code\common\common.o
 .debug_line    0x00003fe3      0x1aa obj\Debug\\code\common\dev_manage\dev_ctl.o
 .debug_line    0x0000418d        0x0 obj\Debug\\code\common\fcvt.o
 .debug_line    0x0000418d      0x278 obj\Debug\\code\common\file_operate\file_operate.o
 .debug_line    0x00004405       0xaf obj\Debug\\code\common\os_api\os_api.o
 .debug_line    0x000044b4      0x2f4 obj\Debug\\code\common\os_api\task_manage.o
 .debug_line    0x000047a8      0x25a obj\Debug\\code\common\printf-stdarg.o
 .debug_line    0x00004a02      0x568 obj\Debug\\code\common\ui\led7_drv.o
 .debug_line    0x00004f6a      0x134 obj\Debug\\code\common\ui\led_ui_api.o
 .debug_line    0x0000509e      0x114 obj\Debug\\code\common\ui\ui_common.o
 .debug_line    0x000051b2      0x119 obj\Debug\\code\common\voice_prompt\voice_prompt.o
 .debug_line    0x000052cb      0x136 obj\Debug\\code\cpu\ac46\board\board_bt15_v0.o
 .debug_line    0x00005401       0x82 obj\Debug\\code\cpu\ac46\driver\M62429.o
 .debug_line    0x00005483       0xf9 obj\Debug\\code\cpu\ac46\driver\clock.o
 .debug_line    0x0000557c      0x217 obj\Debug\\code\cpu\ac46\driver\dac.o
 .debug_line    0x00005793       0x82 obj\Debug\\code\cpu\ac46\driver\encoder.o
 .debug_line    0x00005815       0xc6 obj\Debug\\code\cpu\ac46\driver\interrupt_isr.o
 .debug_line    0x000058db      0x17f obj\Debug\\code\cpu\ac46\driver\key.o
 .debug_line    0x00005a5a      0x134 obj\Debug\\code\cpu\ac46\driver\key_drv_ad.o
 .debug_line    0x00005b8e       0x82 obj\Debug\\code\cpu\ac46\driver\key_drv_io.o
 .debug_line    0x00005c10      0x1dd obj\Debug\\code\cpu\ac46\driver\key_drv_ir.o
 .debug_line    0x00005ded       0x82 obj\Debug\\code\cpu\ac46\driver\key_drv_tch.o
 .debug_line    0x00005e6f      0x120 obj\Debug\\code\cpu\ac46\driver\key_voice.o
 .debug_line    0x00005f8f       0x82 obj\Debug\\code\cpu\ac46\driver\kok_detect.o
 .debug_line    0x00006011      0x1d4 obj\Debug\\code\cpu\ac46\driver\ladc.o
 .debug_line    0x000061e5      0x11a obj\Debug\\code\cpu\ac46\driver\led.o
 .debug_line    0x000062ff      0x182 obj\Debug\\code\cpu\ac46\driver\low_power.o
 .debug_line    0x00006481       0x82 obj\Debug\\code\cpu\ac46\driver\pt2313.o
 .debug_line    0x00006503      0x1d8 obj\Debug\\code\cpu\ac46\driver\sys_detect.o
 .debug_line    0x000066db      0x1ce obj\Debug\\code\cpu\ac46\driver\timer.o
 .debug_line    0x000068a9      0x139 obj\Debug\\code\cpu\ac46\driver\uart.o
 .debug_line    0x000069e2      0x28e code\libs\dec_lib_ac46.a(music_api.o)
 .debug_line    0x00006c70       0xe6 code\libs\dec_lib_ac46.a(sup_dec_op.o)
 .debug_line    0x00006d56      0x35f code\libs\dec_lib_ac46.a(decoder_phy.o)
 .debug_line    0x000070b5      0x1f1 code\libs\lib_dac.a(dac_init.o)
 .debug_line    0x000072a6      0x379 code\libs\lib_dac.a(dac_channel.o)
 .debug_line    0x0000761f       0x89 code\libs\sys_cfg_ac46.a(pll.o)
 .debug_line    0x000076a8       0x9e code\libs\sys_cfg_ac46.a(reg.o)
 .debug_line    0x00007746       0x78 code\libs\sys_cfg_ac46.a(startup.o)
 .debug_line    0x000077be      0x132 code\libs\sys_cfg_ac46.a(system_cfg_file.o)
 .debug_line    0x000078f0       0xfa code\libs\sys_cfg_ac46.a(hwi.o)
 .debug_line    0x000079ea      0x108 code\libs\sys_cfg_ac46.a(irq.o)
 .debug_line    0x00007af2      0x142 code\libs\sys_cfg_ac46.a(system_cfg.o)
 .debug_line    0x00007c34      0x2f9 code\libs\aec_ac46.a(aec.o)
 .debug_line    0x00007f2d       0xa5 code\libs\aec_ac46.a(aec_tst_sd.o)
 .debug_line    0x00007fd2      0x183 code\libs\aec_ac46.a(cdn3_btsyn.o)
 .debug_line    0x00008155       0x84 code\libs\aec_ac46.a(AGC.o)
 .debug_line    0x000081d9       0x58 code\libs\libDAGC.a(DAGC.o)
 .debug_line    0x00008231      0x19c code\libs\libDAGC.a(AGC.o)
 .debug_line    0x000083cd      0x102 code\libs\lib_wav_decode.a(testwav.o)
 .debug_line    0x000084cf      0x163 code\libs\lib_wav_decode.a(wavdec_api.o)
 .debug_line    0x00008632      0x1fb code\libs\lib_wav_decode.a(ima_adpcm.o)
 .debug_line    0x0000882d      0x155 code\libs\lib_wav_decode.a(msadpcmdec.o)
 .debug_line    0x00008982      0x252 code\libs\ef_api_ac46.a(audio_ef.o)
 .debug_line    0x00008bd4      0x42a code\libs\dev_mg_lib.a(drv_manage.o)
 .debug_line    0x00008ffe      0x145 code\libs\dev_mg_lib.a(mango_dev_cache.o)
 .debug_line    0x00009143      0x16c code\libs\dev_mg_lib.a(mbr.o)
 .debug_line    0x000092af      0x190 code\libs\dev_mg_lib.a(dev_updata_mode.o)
 .debug_line    0x0000943f      0x1ab code\libs\dev_mg_lib.a(dev_operate.o)
 .debug_line    0x000095ea      0x190 code\libs\dev_mg_lib.a(fat_io.o)
 .debug_line    0x0000977a      0x1d5 code\libs\dev_mg_lib.a(fs_io.o)
 .debug_line    0x0000994f      0x51b code\libs\dev_mg_lib.a(logic_dev_list.o)
 .debug_line    0x00009e6a      0x1c8 code\libs\dev_mg_lib.a(syd_io.o)
 .debug_line    0x0000a032      0x16f code\libs\dev_mg_lib.a(vfs.o)
 .debug_line    0x0000a1a1      0x39e code\libs\libtff.a(ff_api.o)
 .debug_line    0x0000a53f      0x933 code\libs\libtff.a(tff.o)
 .debug_line    0x0000ae72      0x216 code\libs\sd.a(mango_dev_sd.o)
 .debug_line    0x0000b088      0x25d code\libs\sd.a(sd_controller_interface.o)
 .debug_line    0x0000b2e5       0xa5 code\libs\sd.a(sd_global_var.o)
 .debug_line    0x0000b38a      0x139 code\libs\sd.a(sd_host_read.o)
 .debug_line    0x0000b4c3      0x12e code\libs\sd.a(sd_host_read_end.o)
 .debug_line    0x0000b5f1      0x123 code\libs\sd.a(sd_host_unmount.o)
 .debug_line    0x0000b714      0x137 code\libs\sd.a(sd_host_write.o)
 .debug_line    0x0000b84b      0x12f code\libs\sd.a(sd_host_write_end.o)
 .debug_line    0x0000b97a      0x177 code\libs\sd.a(sdmmc_init.o)
 .debug_line    0x0000baf1      0x11c code\libs\sd.a(suspend_sdmmc.o)
 .debug_line    0x0000bc0d      0x148 code\libs\sd.a(sd_host_send_csd.o)
 .debug_line    0x0000bd55      0x123 code\libs\sd.a(sd_host_stop_trans.o)
 .debug_line    0x0000be78      0x1c9 code\libs\sd.a(sd_host_hw.o)
 .debug_line    0x0000c041       0xd2 code\libs\sd.a(sd_wait_idle.o)
 .debug_line    0x0000c113      0x184 code\libs\sd.a(sdmmc_det.o)
 .debug_line    0x0000c297      0x227 code\libs\sd.a(sd_host_reg.o)
 .debug_line    0x0000c4be       0xca code\libs\sd.a(sd_read_start.o)
 .debug_line    0x0000c588      0x10f code\libs\sd.a(sd_send_command.o)
 .debug_line    0x0000c697       0xcb code\libs\sd.a(sd_write_start.o)
 .debug_line    0x0000c762      0x149 code\libs\sd.a(sd_host_status.o)
 .debug_line    0x0000c8ab       0xf5 code\libs\sd.a(sd_host_init.o)
 .debug_line    0x0000c9a0      0x108 code\libs\sd.a(sd_host_mount.o)
 .debug_line    0x0000caa8       0xca code\libs\sd.a(sd_host_timeout.o)
 .debug_line    0x0000cb72      0x125 code\libs\sd.a(sd_init.o)
 .debug_line    0x0000cc97      0x190 code\libs\sd.a(sdmmc_host_set_bus_width.o)
 .debug_line    0x0000ce27      0x119 code\libs\sd.a(sdmmc_host_set_hispeed.o)
 .debug_line    0x0000cf40       0xc9 code\libs\sd.a(mmc_host_send_rca.o)
 .debug_line    0x0000d009      0x11d code\libs\sd.a(mmc_host_set_bus_width.o)
 .debug_line    0x0000d126      0x11b code\libs\sd.a(mmc_host_set_hispeed.o)
 .debug_line    0x0000d241       0x82 code\libs\sd.a(sd_host_all_send_cid.o)
 .debug_line    0x0000d2c3       0x7b code\libs\sd.a(sd_host_reset.o)
 .debug_line    0x0000d33e       0xe8 code\libs\sd.a(sd_host_sd_status.o)
 .debug_line    0x0000d426       0x82 code\libs\sd.a(sd_host_send_if_cond.o)
 .debug_line    0x0000d4a8      0x119 code\libs\sd.a(sd_host_send_rca.o)
 .debug_line    0x0000d5c1       0xd1 code\libs\sd.a(sd_host_set_bus_width.o)
 .debug_line    0x0000d692       0xe5 code\libs\sd.a(sd_host_set_hispeed.o)
 .debug_line    0x0000d777       0xe0 code\libs\sd.a(sd_host_switch_func.o)
 .debug_line    0x0000d857       0xc6 code\libs\sd.a(sd_select_card.o)
 .debug_line    0x0000d91d       0xe0 code\libs\sd.a(sd_send_scr.o)
 .debug_line    0x0000d9fd      0x10c code\libs\sd.a(sd_chk_ctl.o)
 .debug_line    0x0000db09      0x146 code\libs\sd.a(sd_host_identification.o)
 .debug_line    0x0000dc4f       0x83 code\libs\sd.a(mmc_host_send_op_cond.o)
 .debug_line    0x0000dcd2       0xc4 code\libs\sd.a(sd_host_app_cmd.o)
 .debug_line    0x0000dd96       0xd8 code\libs\sd.a(sd_host_send_op_cond.o)
 .debug_line    0x0000de6e      0x19d code\libs\usb.a(mango_dev_usb_slave.o)
 .debug_line    0x0000e00b      0x1c7 code\libs\usb.a(usb_device_mount.o)
 .debug_line    0x0000e1d2       0xe1 code\libs\usb.a(usb_device_unmount.o)
 .debug_line    0x0000e2b3      0x150 code\libs\usb.a(usb_slave_mic_adc.o)
 .debug_line    0x0000e403      0x147 code\libs\usb.a(usb_slave_spk_dac.o)
 .debug_line    0x0000e54a      0x141 code\libs\usb.a(usbs_ctl_isr.o)
 .debug_line    0x0000e68b      0x141 code\libs\usb.a(usb_class_setting_libs.o)
 .debug_line    0x0000e7cc      0x12e code\libs\usb.a(usb_device_io.o)
 .debug_line    0x0000e8fa      0x145 code\libs\usb.a(usb_hid_key.o)
 .debug_line    0x0000ea3f      0x2cb code\libs\usb.a(usb_slave_ctl.o)
 .debug_line    0x0000ed0a      0x3a5 code\libs\usb.a(usb_slave_scsi_libs.o)
 .debug_line    0x0000f0af      0x1b0 code\libs\usb.a(usb_slave_sd.o)
 .debug_line    0x0000f25f       0xdf code\libs\usb.a(usb_device_status.o)
 .debug_line    0x0000f33e       0xb1 code\libs\usb.a(usb_slave_online.o)
 .debug_line    0x0000f3ef      0x1df code\libs\usb.a(mango_dev_usb.o)
 .debug_line    0x0000f5ce      0x14f code\libs\usb.a(usb_global_var.o)
 .debug_line    0x0000f71d      0x164 code\libs\usb.a(usb_host_mount.o)
 .debug_line    0x0000f881      0x160 code\libs\usb.a(usb_host_read.o)
 .debug_line    0x0000f9e1      0x132 code\libs\usb.a(usb_host_unmount.o)
 .debug_line    0x0000fb13      0x145 code\libs\usb.a(usb_host_write.o)
 .debug_line    0x0000fc58      0x195 code\libs\usb.a(usb_read_remain.o)
 .debug_line    0x0000fded       0xf4 code\libs\usb.a(usb_suspend.o)
 .debug_line    0x0000fee1      0x179 code\libs\usb.a(USB_Host_dev_enum_libs.o)
 .debug_line    0x0001005a      0x115 code\libs\usb.a(usb_control_transfers.o)
 .debug_line    0x0001016f      0x18a code\libs\usb.a(usb_ctlXfer.o)
 .debug_line    0x000102f9      0x155 code\libs\usb.a(usb_descriptor_parser.o)
 .debug_line    0x0001044e      0x137 code\libs\usb.a(usb_bulk_only_receive.o)
 .debug_line    0x00010585      0x1ae code\libs\usb.a(usb_bulk_only_transfer.o)
 .debug_line    0x00010733      0x1b1 code\libs\usb.a(usb_ufi_read10.o)
 .debug_line    0x000108e4      0x196 code\libs\usb.a(usb_ufi_write10.o)
 .debug_line    0x00010a7a      0x1e5 code\libs\usb.a(usbh_msd_enum.o)
 .debug_line    0x00010c5f      0x123 code\libs\usb.a(usbh_msd_parser.o)
 .debug_line    0x00010d82      0x16b code\libs\usb.a(usb_host_reg_libs.o)
 .debug_line    0x00010eed       0xbd code\libs\usb.a(usb_reg.o)
 .debug_line    0x00010faa      0x163 code\libs\usb.a(usb_host_status.o)
 .debug_line    0x0001110d      0x132 code\libs\usb.a(usb_online.o)
 .debug_line    0x0001123f       0x95 code\libs\usb.a(Descriptor.o)
 .debug_line    0x000112d4      0x190 code\libs\usb.a(set_descriptor_libs.o)
 .debug_line    0x00011464       0xfc code\libs\usb.a(usb_host_timeout.o)
 .debug_line    0x00011560      0x11a code\libs\usb.a(get_max_LUN.o)
 .debug_line    0x0001167a      0x10a code\libs\usb.a(usb_host_clear_feature.o)
 .debug_line    0x00011784      0x145 code\libs\usb.a(CBW_init.o)
 .debug_line    0x000118c9      0x128 code\libs\usb.a(usb_bulk_only_send.o)
 .debug_line    0x000119f1      0x1b5 code\libs\usb.a(usb_host_scsi_cmd_libs.o)
 .debug_line    0x00011ba6      0x1c5 code\libs\librtos_bt15.a(os_core.o)
 .debug_line    0x00011d6b      0x147 code\libs\librtos_bt15.a(os_mutex.o)
 .debug_line    0x00011eb2      0x12f code\libs\librtos_bt15.a(os_sem.o)
 .debug_line    0x00011fe1      0x365 code\libs\librtos_bt15.a(os_task.o)
 .debug_line    0x00012346       0xcb code\libs\librtos_bt15.a(os_time.o)
 .debug_line    0x00012411       0xcf code\libs\librtos_bt15.a(os_cpu.o)
 .debug_line    0x000124e0       0xe3 code\libs\librtos_bt15.a(os_cpu_c.o)
 .debug_line    0x000125c3      0x676 code\libs\lib_cache_vm_bt15.a(vm.o)
 .debug_line    0x00012c39      0x196 code\libs\sydf_ac46.a(syd_file.o)
 .debug_line    0x00012dcf      0x14b code\libs\lib_aac_decode.a(aac_main.o)
 .debug_line    0x00012f1a       0x8b code\libs\lib_aac_decode.a(common.o)
 .debug_line    0x00012fa5      0x142 code\libs\lib_aac_decode.a(decoder.o)
 .debug_line    0x000130e7      0x649 code\libs\lib_aac_decode.a(filtbank.o)
 .debug_line    0x00013730      0x1e6 code\libs\lib_aac_decode.a(mdct.o)
 .debug_line    0x00013916       0xe1 code\libs\lib_aac_decode.a(output.o)
 .debug_line    0x000139f7      0x511 code\libs\lib_aac_decode.a(syntax.o)
 .debug_line    0x00013f08      0x10c code\libs\lib_aac_decode.a(bits.o)
 .debug_line    0x00014014      0x46e code\libs\lib_aac_decode.a(cfft.o)
 .debug_line    0x00014482      0x237 code\libs\lib_aac_decode.a(huffman.o)
 .debug_line    0x000146b9       0x82 code\libs\lib_aac_decode.a(pulse.o)
 .debug_line    0x0001473b      0x2b7 code\libs\lib_aac_decode.a(specrec.o)
 .debug_line    0x000149f2      0x310 code\libs\lib_aac_decode.a(tns.o)
 .debug_line    0x00014d02      0x12b code\libs\lib_aac_decode.a(is.o)
 .debug_line    0x00014e2d      0x119 code\libs\lib_aac_decode.a(ms.o)
 .debug_line    0x00014f46       0x9e code\libs\clk_ac46.a(clock_api.o)
 .debug_line    0x00014fe4      0x1bc code\libs\clk_ac46.a(clock_moudle.o)
 .debug_line    0x000151a0      0x209 code\libs\clk_ac46.a(clock_app.o)
 .debug_line    0x000153a9      0x195 code\libs\clk_ac46.a(pll_moudle.o)
 .debug_line    0x0001553e      0x17d code\libs\lib_flac_decode.a(mtst_flac.o)
 .debug_line    0x000156bb      0x53a code\libs\lib_flac_decode.a(flacdec.o)
 .debug_line    0x00015bf5      0x41d code\libs\lib_encode.a(encode.o)
 .debug_line    0x00016012      0x181 code\libs\lib_encode.a(dev_write_api.o)
 .debug_line    0x00016193      0x12d C:\JL\dv10\lib\libc.a(lib_a-memcmp.o)
 .debug_line    0x000162c0      0x12f C:\JL\dv10\lib\libc.a(lib_a-memcpy.o)
 .debug_line    0x000163ef      0x153 C:\JL\dv10\lib\libc.a(lib_a-memmove.o)
 .debug_line    0x00016542      0x152 C:\JL\dv10\lib\libc.a(lib_a-memset.o)
 .debug_line    0x00016694      0x162 C:\JL\dv10\lib\libc.a(lib_a-rand.o)
 .debug_line    0x000167f6       0xf3 C:\JL\dv10\lib\libc.a(lib_a-strcmp.o)
 .debug_line    0x000168e9       0xd8 C:\JL\dv10\lib\libc.a(lib_a-strcpy.o)
 .debug_line    0x000169c1      0x14a C:\JL\dv10\lib\libc.a(lib_a-strlen.o)
 .debug_line    0x00016b0b      0x47b C:\JL\dv10\lib\libc.a(lib_a-strstr.o)
 .debug_line    0x00016f86      0x100 C:\JL\dv10\lib\libc.a(lib_a-impure.o)
 .debug_line    0x00017086      0x158 C:\JL\dv10\lib\libc.a(lib_a-memchr.o)
 .debug_line    0x000171de      0x14c C:\JL\dv10\lib\libc.a(lib_a-strchr.o)
 .debug_line    0x0001732a       0x80 C:\JL\dv10\lib\libgcc.a(_umodsi3.o)
 .debug_line    0x000173aa       0x7f C:\JL\dv10\lib\libgcc.a(_modsi3.o)
 .debug_line    0x00017429       0x88 C:\JL\dv10\lib\libgcc.a(_muldi3.o)
 .debug_line    0x000174b1       0x7e C:\JL\dv10\lib\libgcc.a(_umulsi3_highpart.o)
 .debug_line    0x0001752f       0x88 C:\JL\dv10\lib\libgcc.a(_lshrdi3.o)
 .debug_line    0x000175b7       0x88 C:\JL\dv10\lib\libgcc.a(_ashldi3.o)
 .debug_line    0x0001763f      0x11c C:\JL\dv10\lib\libgcc.a(_divdi3.o)
 .debug_line    0x0001775b      0x12a C:\JL\dv10\lib\libgcc.a(_udivdi3.o)
 .debug_line    0x00017885      0x12d C:\JL\dv10\lib\libgcc.a(_umoddi3.o)
 .debug_line    0x000179b2      0x149 C:\JL\dv10\lib\libgcc.a(divsf3.o)
 .debug_line    0x00017afb      0x2d1 C:\JL\dv10\lib\libgcc.a(subsf3.o)
 .debug_line    0x00017dcc       0xc7 C:\JL\dv10\lib\libgcc.a(fixsfsi.o)
 .debug_line    0x00017e93       0xd9 C:\JL\dv10\lib\libgcc.a(floatsisf.o)
 .debug_line    0x00017f6c       0x64 C:\JL\dv10\lib\libgcc.a(_clz.o)
 .debug_line    0x00017fd0       0xa6 C:\JL\dv10\lib\libgcc.a(_clzsi2.o)

.debug_frame    0x00000000     0x9b78
 .debug_frame   0x00000000       0x38 obj\Debug\\code\apps\bt\aec\aec_api.o
 .debug_frame   0x00000038      0x100 obj\Debug\\code\apps\bt\btstack\bt_configs_user.o
 .debug_frame   0x00000138      0x228 obj\Debug\\code\apps\bt\btstack\bt_key_deal.o
 .debug_frame   0x00000360       0xac obj\Debug\\code\apps\bt\btstack\fcc_test.o
 .debug_frame   0x0000040c      0x360 obj\Debug\\code\apps\fm\fm_api.o
 .debug_frame   0x0000076c       0x20 obj\Debug\\code\apps\fm\fm_prompt.o
 .debug_frame   0x0000078c       0xa8 obj\Debug\\code\apps\fm\fm_radio.o
 .debug_frame   0x00000834       0x94 obj\Debug\\code\apps\idle\idle.o
 .debug_frame   0x000008c8       0x78 obj\Debug\\code\apps\linein\dev_linein.o
 .debug_frame   0x00000940      0x184 obj\Debug\\code\apps\linein\linein.o
 .debug_frame   0x00000ac4       0x20 obj\Debug\\code\apps\linein\linein_prompt.o
 .debug_frame   0x00000ae4       0x9c obj\Debug\\code\apps\main\main.o
 .debug_frame   0x00000b80       0xbc obj\Debug\\code\apps\main\vm_api.o
 .debug_frame   0x00000c3c       0x4c obj\Debug\\code\apps\music\ef_api.o
 .debug_frame   0x00000c88      0x134 obj\Debug\\code\apps\music\music.o
 .debug_frame   0x00000dbc       0x8c obj\Debug\\code\apps\music\music_info.o
 .debug_frame   0x00000e48       0x30 obj\Debug\\code\apps\music\music_prompt.o
 .debug_frame   0x00000e78      0x100 obj\Debug\\code\apps\music\play_sel.o
 .debug_frame   0x00000f78      0x154 obj\Debug\\code\apps\record\record.o
 .debug_frame   0x000010cc       0x20 obj\Debug\\code\apps\rtc\rtc_prompt.o
 .debug_frame   0x000010ec      0x120 obj\Debug\\code\apps\usb_device\dev_pc.o
 .debug_frame   0x0000120c       0x20 obj\Debug\\code\apps\usb_device\pc_prompt.o
 .debug_frame   0x0000122c       0xe0 obj\Debug\\code\apps\usb_device\usb_device.o
 .debug_frame   0x0000130c       0x70 obj\Debug\\code\common\ASCII_lib.o
 .debug_frame   0x0000137c       0x70 obj\Debug\\code\common\common.o
 .debug_frame   0x000013ec       0x5c obj\Debug\\code\common\dev_manage\dev_ctl.o
 .debug_frame   0x00001448       0xac obj\Debug\\code\common\file_operate\file_operate.o
 .debug_frame   0x000014f4       0x58 obj\Debug\\code\common\os_api\os_api.o
 .debug_frame   0x0000154c       0xd8 obj\Debug\\code\common\os_api\task_manage.o
 .debug_frame   0x00001624       0xd4 obj\Debug\\code\common\printf-stdarg.o
 .debug_frame   0x000016f8      0x344 obj\Debug\\code\common\ui\led7_drv.o
 .debug_frame   0x00001a3c       0x48 obj\Debug\\code\common\ui\led_ui_api.o
 .debug_frame   0x00001a84       0xb8 obj\Debug\\code\common\ui\ui_common.o
 .debug_frame   0x00001b3c       0x38 obj\Debug\\code\common\voice_prompt\voice_prompt.o
 .debug_frame   0x00001b74       0x7c obj\Debug\\code\cpu\ac46\board\board_bt15_v0.o
 .debug_frame   0x00001bf0       0x48 obj\Debug\\code\cpu\ac46\driver\clock.o
 .debug_frame   0x00001c38      0x190 obj\Debug\\code\cpu\ac46\driver\dac.o
 .debug_frame   0x00001dc8       0x90 obj\Debug\\code\cpu\ac46\driver\interrupt_isr.o
 .debug_frame   0x00001e58       0xb0 obj\Debug\\code\cpu\ac46\driver\key.o
 .debug_frame   0x00001f08       0x6c obj\Debug\\code\cpu\ac46\driver\key_drv_ad.o
 .debug_frame   0x00001f74       0x88 obj\Debug\\code\cpu\ac46\driver\key_drv_ir.o
 .debug_frame   0x00001ffc       0x7c obj\Debug\\code\cpu\ac46\driver\key_voice.o
 .debug_frame   0x00002078       0xa8 obj\Debug\\code\cpu\ac46\driver\ladc.o
 .debug_frame   0x00002120       0x6c obj\Debug\\code\cpu\ac46\driver\led.o
 .debug_frame   0x0000218c       0x34 obj\Debug\\code\cpu\ac46\driver\low_power.o
 .debug_frame   0x000021c0       0xa4 obj\Debug\\code\cpu\ac46\driver\sys_detect.o
 .debug_frame   0x00002264       0xb0 obj\Debug\\code\cpu\ac46\driver\timer.o
 .debug_frame   0x00002314      0x130 obj\Debug\\code\cpu\ac46\driver\uart.o
 .debug_frame   0x00002444       0x3c code\libs\dec_lib_ac46.a(music_api.o)
 .debug_frame   0x00002480       0x70 code\libs\dec_lib_ac46.a(sup_dec_op.o)
 .debug_frame   0x000024f0      0x28c code\libs\dec_lib_ac46.a(decoder_phy.o)
 .debug_frame   0x0000277c      0x134 code\libs\lib_dac.a(dac_init.o)
 .debug_frame   0x000028b0      0x280 code\libs\lib_dac.a(dac_channel.o)
 .debug_frame   0x00002b30       0x30 code\libs\sys_cfg_ac46.a(pll.o)
 .debug_frame   0x00002b60      0x120 code\libs\sys_cfg_ac46.a(system_cfg_file.o)
 .debug_frame   0x00002c80       0xe0 code\libs\sys_cfg_ac46.a(hwi.o)
 .debug_frame   0x00002d60       0xac code\libs\sys_cfg_ac46.a(irq.o)
 .debug_frame   0x00002e0c       0xd0 code\libs\sys_cfg_ac46.a(system_cfg.o)
 .debug_frame   0x00002edc      0x1d0 code\libs\aec_ac46.a(aec.o)
 .debug_frame   0x000030ac       0x90 code\libs\aec_ac46.a(aec_tst_sd.o)
 .debug_frame   0x0000313c       0x9c code\libs\aec_ac46.a(cdn3_btsyn.o)
 .debug_frame   0x000031d8       0x38 code\libs\aec_ac46.a(AGC.o)
 .debug_frame   0x00003210       0x50 code\libs\libDAGC.a(DAGC.o)
 .debug_frame   0x00003260       0x74 code\libs\libDAGC.a(AGC.o)
 .debug_frame   0x000032d4      0x11c code\libs\lib_wav_decode.a(testwav.o)
 .debug_frame   0x000033f0       0x80 code\libs\lib_wav_decode.a(wavdec_api.o)
 .debug_frame   0x00003470       0x64 code\libs\lib_wav_decode.a(ima_adpcm.o)
 .debug_frame   0x000034d4       0x5c code\libs\lib_wav_decode.a(msadpcmdec.o)
 .debug_frame   0x00003530      0x1c8 code\libs\ef_api_ac46.a(audio_ef.o)
 .debug_frame   0x000036f8      0x270 code\libs\dev_mg_lib.a(drv_manage.o)
 .debug_frame   0x00003968       0xc0 code\libs\dev_mg_lib.a(mango_dev_cache.o)
 .debug_frame   0x00003a28       0xe0 code\libs\dev_mg_lib.a(mbr.o)
 .debug_frame   0x00003b08       0x3c code\libs\dev_mg_lib.a(dev_updata_mode.o)
 .debug_frame   0x00003b44       0x80 code\libs\dev_mg_lib.a(dev_operate.o)
 .debug_frame   0x00003bc4      0x21c code\libs\dev_mg_lib.a(fat_io.o)
 .debug_frame   0x00003de0      0x23c code\libs\dev_mg_lib.a(fs_io.o)
 .debug_frame   0x0000401c      0x3f4 code\libs\dev_mg_lib.a(logic_dev_list.o)
 .debug_frame   0x00004410      0x214 code\libs\dev_mg_lib.a(syd_io.o)
 .debug_frame   0x00004624      0x11c code\libs\dev_mg_lib.a(vfs.o)
 .debug_frame   0x00004740      0x250 code\libs\libtff.a(ff_api.o)
 .debug_frame   0x00004990      0x658 code\libs\libtff.a(tff.o)
 .debug_frame   0x00004fe8      0x270 code\libs\sd.a(mango_dev_sd.o)
 .debug_frame   0x00005258      0x1f8 code\libs\sd.a(sd_controller_interface.o)
 .debug_frame   0x00005450       0x5c code\libs\sd.a(sd_host_read.o)
 .debug_frame   0x000054ac       0x40 code\libs\sd.a(sd_host_read_end.o)
 .debug_frame   0x000054ec       0x34 code\libs\sd.a(sd_host_unmount.o)
 .debug_frame   0x00005520       0x5c code\libs\sd.a(sd_host_write.o)
 .debug_frame   0x0000557c       0x3c code\libs\sd.a(sd_host_write_end.o)
 .debug_frame   0x000055b8       0x64 code\libs\sd.a(sdmmc_init.o)
 .debug_frame   0x0000561c       0x28 code\libs\sd.a(suspend_sdmmc.o)
 .debug_frame   0x00005644       0x48 code\libs\sd.a(sd_host_send_csd.o)
 .debug_frame   0x0000568c       0x3c code\libs\sd.a(sd_host_stop_trans.o)
 .debug_frame   0x000056c8       0xac code\libs\sd.a(sd_host_hw.o)
 .debug_frame   0x00005774       0x38 code\libs\sd.a(sd_wait_idle.o)
 .debug_frame   0x000057ac       0xc4 code\libs\sd.a(sdmmc_det.o)
 .debug_frame   0x00005870      0x208 code\libs\sd.a(sd_host_reg.o)
 .debug_frame   0x00005a78       0x34 code\libs\sd.a(sd_read_start.o)
 .debug_frame   0x00005aac       0x34 code\libs\sd.a(sd_send_command.o)
 .debug_frame   0x00005ae0       0x34 code\libs\sd.a(sd_write_start.o)
 .debug_frame   0x00005b14       0x44 code\libs\sd.a(sd_host_status.o)
 .debug_frame   0x00005b58       0x30 code\libs\sd.a(sd_host_init.o)
 .debug_frame   0x00005b88       0x38 code\libs\sd.a(sd_host_mount.o)
 .debug_frame   0x00005bc0       0x34 code\libs\sd.a(sd_host_timeout.o)
 .debug_frame   0x00005bf4       0x3c code\libs\sd.a(sd_init.o)
 .debug_frame   0x00005c30       0x40 code\libs\sd.a(sdmmc_host_set_bus_width.o)
 .debug_frame   0x00005c70       0x38 code\libs\sd.a(sdmmc_host_set_hispeed.o)
 .debug_frame   0x00005ca8       0x20 code\libs\sd.a(mmc_host_send_rca.o)
 .debug_frame   0x00005cc8       0x34 code\libs\sd.a(mmc_host_set_bus_width.o)
 .debug_frame   0x00005cfc       0x34 code\libs\sd.a(mmc_host_set_hispeed.o)
 .debug_frame   0x00005d30       0x20 code\libs\sd.a(sd_host_all_send_cid.o)
 .debug_frame   0x00005d50       0x20 code\libs\sd.a(sd_host_reset.o)
 .debug_frame   0x00005d70       0x38 code\libs\sd.a(sd_host_sd_status.o)
 .debug_frame   0x00005da8       0x20 code\libs\sd.a(sd_host_send_if_cond.o)
 .debug_frame   0x00005dc8       0x34 code\libs\sd.a(sd_host_send_rca.o)
 .debug_frame   0x00005dfc       0x38 code\libs\sd.a(sd_host_set_bus_width.o)
 .debug_frame   0x00005e34       0x3c code\libs\sd.a(sd_host_set_hispeed.o)
 .debug_frame   0x00005e70       0x38 code\libs\sd.a(sd_host_switch_func.o)
 .debug_frame   0x00005ea8       0x20 code\libs\sd.a(sd_select_card.o)
 .debug_frame   0x00005ec8       0x38 code\libs\sd.a(sd_send_scr.o)
 .debug_frame   0x00005f00       0x34 code\libs\sd.a(sd_chk_ctl.o)
 .debug_frame   0x00005f34       0x3c code\libs\sd.a(sd_host_identification.o)
 .debug_frame   0x00005f70       0x20 code\libs\sd.a(mmc_host_send_op_cond.o)
 .debug_frame   0x00005f90       0x20 code\libs\sd.a(sd_host_app_cmd.o)
 .debug_frame   0x00005fb0       0x38 code\libs\sd.a(sd_host_send_op_cond.o)
 .debug_frame   0x00005fe8      0x170 code\libs\usb.a(mango_dev_usb_slave.o)
 .debug_frame   0x00006158       0x78 code\libs\usb.a(usb_device_mount.o)
 .debug_frame   0x000061d0       0x28 code\libs\usb.a(usb_device_unmount.o)
 .debug_frame   0x000061f8       0x80 code\libs\usb.a(usb_slave_mic_adc.o)
 .debug_frame   0x00006278       0x90 code\libs\usb.a(usb_slave_spk_dac.o)
 .debug_frame   0x00006308       0x68 code\libs\usb.a(usbs_ctl_isr.o)
 .debug_frame   0x00006370       0x20 code\libs\usb.a(usb_class_setting_libs.o)
 .debug_frame   0x00006390       0x80 code\libs\usb.a(usb_device_io.o)
 .debug_frame   0x00006410       0x4c code\libs\usb.a(usb_hid_key.o)
 .debug_frame   0x0000645c      0x138 code\libs\usb.a(usb_slave_ctl.o)
 .debug_frame   0x00006594      0x18c code\libs\usb.a(usb_slave_scsi_libs.o)
 .debug_frame   0x00006720       0x68 code\libs\usb.a(usb_slave_sd.o)
 .debug_frame   0x00006788       0x30 code\libs\usb.a(usb_device_status.o)
 .debug_frame   0x000067b8       0x28 code\libs\usb.a(usb_slave_online.o)
 .debug_frame   0x000067e0      0x150 code\libs\usb.a(mango_dev_usb.o)
 .debug_frame   0x00006930       0x20 code\libs\usb.a(usb_global_var.o)
 .debug_frame   0x00006950       0x3c code\libs\usb.a(usb_host_mount.o)
 .debug_frame   0x0000698c       0x3c code\libs\usb.a(usb_host_read.o)
 .debug_frame   0x000069c8       0x20 code\libs\usb.a(usb_host_unmount.o)
 .debug_frame   0x000069e8       0x38 code\libs\usb.a(usb_host_write.o)
 .debug_frame   0x00006a20       0x34 code\libs\usb.a(usb_read_remain.o)
 .debug_frame   0x00006a54       0x28 code\libs\usb.a(usb_suspend.o)
 .debug_frame   0x00006a7c       0x3c code\libs\usb.a(USB_Host_dev_enum_libs.o)
 .debug_frame   0x00006ab8       0x3c code\libs\usb.a(usb_control_transfers.o)
 .debug_frame   0x00006af4       0x40 code\libs\usb.a(usb_ctlXfer.o)
 .debug_frame   0x00006b34       0x38 code\libs\usb.a(usb_descriptor_parser.o)
 .debug_frame   0x00006b6c       0x40 code\libs\usb.a(usb_bulk_only_receive.o)
 .debug_frame   0x00006bac       0x38 code\libs\usb.a(usb_bulk_only_transfer.o)
 .debug_frame   0x00006be4       0x3c code\libs\usb.a(usb_ufi_read10.o)
 .debug_frame   0x00006c20       0x34 code\libs\usb.a(usb_ufi_write10.o)
 .debug_frame   0x00006c54       0x40 code\libs\usb.a(usbh_msd_enum.o)
 .debug_frame   0x00006c94       0x2c code\libs\usb.a(usbh_msd_parser.o)
 .debug_frame   0x00006cc0       0x64 code\libs\usb.a(usb_host_reg_libs.o)
 .debug_frame   0x00006d24       0x40 code\libs\usb.a(usb_reg.o)
 .debug_frame   0x00006d64       0x58 code\libs\usb.a(usb_host_status.o)
 .debug_frame   0x00006dbc       0x90 code\libs\usb.a(usb_online.o)
 .debug_frame   0x00006e4c       0x3c code\libs\usb.a(set_descriptor_libs.o)
 .debug_frame   0x00006e88       0x34 code\libs\usb.a(usb_host_timeout.o)
 .debug_frame   0x00006ebc       0x3c code\libs\usb.a(get_max_LUN.o)
 .debug_frame   0x00006ef8       0x34 code\libs\usb.a(usb_host_clear_feature.o)
 .debug_frame   0x00006f2c       0x30 code\libs\usb.a(CBW_init.o)
 .debug_frame   0x00006f5c       0x3c code\libs\usb.a(usb_bulk_only_send.o)
 .debug_frame   0x00006f98       0xa0 code\libs\usb.a(usb_host_scsi_cmd_libs.o)
 .debug_frame   0x00007038      0x168 code\libs\librtos_bt15.a(os_core.o)
 .debug_frame   0x000071a0       0xa8 code\libs\librtos_bt15.a(os_mutex.o)
 .debug_frame   0x00007248       0xb4 code\libs\librtos_bt15.a(os_sem.o)
 .debug_frame   0x000072fc      0x310 code\libs\librtos_bt15.a(os_task.o)
 .debug_frame   0x0000760c       0x58 code\libs\librtos_bt15.a(os_time.o)
 .debug_frame   0x00007664       0x64 code\libs\librtos_bt15.a(os_cpu_c.o)
 .debug_frame   0x000076c8      0x498 code\libs\lib_cache_vm_bt15.a(vm.o)
 .debug_frame   0x00007b60      0x1c8 code\libs\sydf_ac46.a(syd_file.o)
 .debug_frame   0x00007d28       0xe0 code\libs\lib_aac_decode.a(aac_main.o)
 .debug_frame   0x00007e08       0x50 code\libs\lib_aac_decode.a(common.o)
 .debug_frame   0x00007e58       0x80 code\libs\lib_aac_decode.a(decoder.o)
 .debug_frame   0x00007ed8       0x64 code\libs\lib_aac_decode.a(filtbank.o)
 .debug_frame   0x00007f3c       0x68 code\libs\lib_aac_decode.a(mdct.o)
 .debug_frame   0x00007fa4       0x30 code\libs\lib_aac_decode.a(output.o)
 .debug_frame   0x00007fd4      0x188 code\libs\lib_aac_decode.a(syntax.o)
 .debug_frame   0x0000815c      0x114 code\libs\lib_aac_decode.a(bits.o)
 .debug_frame   0x00008270       0xdc code\libs\lib_aac_decode.a(cfft.o)
 .debug_frame   0x0000834c      0x18c code\libs\lib_aac_decode.a(huffman.o)
 .debug_frame   0x000084d8       0x30 code\libs\lib_aac_decode.a(pulse.o)
 .debug_frame   0x00008508       0xd0 code\libs\lib_aac_decode.a(specrec.o)
 .debug_frame   0x000085d8       0x98 code\libs\lib_aac_decode.a(tns.o)
 .debug_frame   0x00008670       0x60 code\libs\lib_aac_decode.a(is.o)
 .debug_frame   0x000086d0       0x4c code\libs\lib_aac_decode.a(ms.o)
 .debug_frame   0x0000871c       0x3c code\libs\clk_ac46.a(clock_api.o)
 .debug_frame   0x00008758      0x288 code\libs\clk_ac46.a(clock_moudle.o)
 .debug_frame   0x000089e0      0x274 code\libs\clk_ac46.a(clock_app.o)
 .debug_frame   0x00008c54      0x198 code\libs\clk_ac46.a(pll_moudle.o)
 .debug_frame   0x00008dec      0x224 code\libs\lib_flac_decode.a(mtst_flac.o)
 .debug_frame   0x00009010      0x248 code\libs\lib_flac_decode.a(flacdec.o)
 .debug_frame   0x00009258      0x394 code\libs\lib_encode.a(encode.o)
 .debug_frame   0x000095ec       0x88 code\libs\lib_encode.a(dev_write_api.o)
 .debug_frame   0x00009674       0x30 C:\JL\dv10\lib\libc.a(lib_a-memcmp.o)
 .debug_frame   0x000096a4       0x34 C:\JL\dv10\lib\libc.a(lib_a-memcpy.o)
 .debug_frame   0x000096d8       0x34 C:\JL\dv10\lib\libc.a(lib_a-memmove.o)
 .debug_frame   0x0000970c       0x34 C:\JL\dv10\lib\libc.a(lib_a-memset.o)
 .debug_frame   0x00009740       0x48 C:\JL\dv10\lib\libc.a(lib_a-rand.o)
 .debug_frame   0x00009788       0x34 C:\JL\dv10\lib\libc.a(lib_a-strcmp.o)
 .debug_frame   0x000097bc       0x34 C:\JL\dv10\lib\libc.a(lib_a-strcpy.o)
 .debug_frame   0x000097f0       0x34 C:\JL\dv10\lib\libc.a(lib_a-strlen.o)
 .debug_frame   0x00009824       0xac C:\JL\dv10\lib\libc.a(lib_a-strstr.o)
 .debug_frame   0x000098d0       0x3c C:\JL\dv10\lib\libc.a(lib_a-memchr.o)
 .debug_frame   0x0000990c       0x38 C:\JL\dv10\lib\libc.a(lib_a-strchr.o)
 .debug_frame   0x00009944       0x30 C:\JL\dv10\lib\libgcc.a(_lshrdi3.o)
 .debug_frame   0x00009974       0x30 C:\JL\dv10\lib\libgcc.a(_ashldi3.o)
 .debug_frame   0x000099a4       0x40 C:\JL\dv10\lib\libgcc.a(_divdi3.o)
 .debug_frame   0x000099e4       0x4c C:\JL\dv10\lib\libgcc.a(_udivdi3.o)
 .debug_frame   0x00009a30       0x4c C:\JL\dv10\lib\libgcc.a(_umoddi3.o)
 .debug_frame   0x00009a7c       0x40 C:\JL\dv10\lib\libgcc.a(divsf3.o)
 .debug_frame   0x00009abc       0x38 C:\JL\dv10\lib\libgcc.a(subsf3.o)
 .debug_frame   0x00009af4       0x28 C:\JL\dv10\lib\libgcc.a(fixsfsi.o)
 .debug_frame   0x00009b1c       0x34 C:\JL\dv10\lib\libgcc.a(floatsisf.o)
 .debug_frame   0x00009b50       0x28 C:\JL\dv10\lib\libgcc.a(_clzsi2.o)

.debug_loc      0x00000000    0x2ebb3
 .debug_loc     0x00000000       0x2c obj\Debug\\code\apps\bt\aec\aec_api.o
 .debug_loc     0x0000002c      0x1ec obj\Debug\\code\apps\bt\btstack\bt_configs_user.o
 .debug_loc     0x00000218      0x66b obj\Debug\\code\apps\bt\btstack\bt_key_deal.o
 .debug_loc     0x00000883      0x1ad obj\Debug\\code\apps\bt\btstack\fcc_test.o
 .debug_loc     0x00000a30      0xa2d obj\Debug\\code\apps\fm\fm_api.o
 .debug_loc     0x0000145d      0x4bc obj\Debug\\code\apps\fm\fm_radio.o
 .debug_loc     0x00001919       0xf8 obj\Debug\\code\apps\idle\idle.o
 .debug_loc     0x00001a11       0xfc obj\Debug\\code\apps\linein\dev_linein.o
 .debug_loc     0x00001b0d      0x25f obj\Debug\\code\apps\linein\linein.o
 .debug_loc     0x00001d6c      0x180 obj\Debug\\code\apps\main\main.o
 .debug_loc     0x00001eec      0x230 obj\Debug\\code\apps\main\vm_api.o
 .debug_loc     0x0000211c       0xe9 obj\Debug\\code\apps\music\ef_api.o
 .debug_loc     0x00002205      0x7af obj\Debug\\code\apps\music\music.o
 .debug_loc     0x000029b4      0x13d obj\Debug\\code\apps\music\music_info.o
 .debug_loc     0x00002af1       0x26 obj\Debug\\code\apps\music\music_prompt.o
 .debug_loc     0x00002b17      0x4e1 obj\Debug\\code\apps\music\play_sel.o
 .debug_loc     0x00002ff8      0x4d6 obj\Debug\\code\apps\record\record.o
 .debug_loc     0x000034ce      0x415 obj\Debug\\code\apps\usb_device\dev_pc.o
 .debug_loc     0x000038e3      0x26a obj\Debug\\code\apps\usb_device\usb_device.o
 .debug_loc     0x00003b4d      0x22f obj\Debug\\code\common\ASCII_lib.o
 .debug_loc     0x00003d7c       0xdf obj\Debug\\code\common\common.o
 .debug_loc     0x00003e5b       0x96 obj\Debug\\code\common\dev_manage\dev_ctl.o
 .debug_loc     0x00003ef1      0x7d9 obj\Debug\\code\common\file_operate\file_operate.o
 .debug_loc     0x000046ca      0x14b obj\Debug\\code\common\os_api\os_api.o
 .debug_loc     0x00004815      0x33f obj\Debug\\code\common\os_api\task_manage.o
 .debug_loc     0x00004b54      0x71f obj\Debug\\code\common\printf-stdarg.o
 .debug_loc     0x00005273      0x54b obj\Debug\\code\common\ui\led7_drv.o
 .debug_loc     0x000057be       0xc5 obj\Debug\\code\common\ui\led_ui_api.o
 .debug_loc     0x00005883      0x188 obj\Debug\\code\common\ui\ui_common.o
 .debug_loc     0x00005a0b       0xc2 obj\Debug\\code\common\voice_prompt\voice_prompt.o
 .debug_loc     0x00005acd      0x109 obj\Debug\\code\cpu\ac46\board\board_bt15_v0.o
 .debug_loc     0x00005bd6       0x85 obj\Debug\\code\cpu\ac46\driver\clock.o
 .debug_loc     0x00005c5b      0x3e6 obj\Debug\\code\cpu\ac46\driver\dac.o
 .debug_loc     0x00006041      0x2bb obj\Debug\\code\cpu\ac46\driver\key.o
 .debug_loc     0x000062fc       0xea obj\Debug\\code\cpu\ac46\driver\key_drv_ad.o
 .debug_loc     0x000063e6      0x1f3 obj\Debug\\code\cpu\ac46\driver\key_drv_ir.o
 .debug_loc     0x000065d9      0x10b obj\Debug\\code\cpu\ac46\driver\key_voice.o
 .debug_loc     0x000066e4      0x235 obj\Debug\\code\cpu\ac46\driver\ladc.o
 .debug_loc     0x00006919       0xa4 obj\Debug\\code\cpu\ac46\driver\led.o
 .debug_loc     0x000069bd       0x80 obj\Debug\\code\cpu\ac46\driver\low_power.o
 .debug_loc     0x00006a3d       0xba obj\Debug\\code\cpu\ac46\driver\sys_detect.o
 .debug_loc     0x00006af7      0x1ed obj\Debug\\code\cpu\ac46\driver\timer.o
 .debug_loc     0x00006ce4       0xca obj\Debug\\code\cpu\ac46\driver\uart.o
 .debug_loc     0x00006dae      0x2fa code\libs\dec_lib_ac46.a(music_api.o)
 .debug_loc     0x000070a8      0x142 code\libs\dec_lib_ac46.a(sup_dec_op.o)
 .debug_loc     0x000071ea      0xb0f code\libs\dec_lib_ac46.a(decoder_phy.o)
 .debug_loc     0x00007cf9      0x48e code\libs\lib_dac.a(dac_init.o)
 .debug_loc     0x00008187      0x936 code\libs\lib_dac.a(dac_channel.o)
 .debug_loc     0x00008abd       0x76 code\libs\sys_cfg_ac46.a(pll.o)
 .debug_loc     0x00008b33      0x29e code\libs\sys_cfg_ac46.a(system_cfg_file.o)
 .debug_loc     0x00008dd1      0x1eb code\libs\sys_cfg_ac46.a(hwi.o)
 .debug_loc     0x00008fbc      0x1f8 code\libs\sys_cfg_ac46.a(irq.o)
 .debug_loc     0x000091b4      0x514 code\libs\sys_cfg_ac46.a(system_cfg.o)
 .debug_loc     0x000096c8      0x67a code\libs\aec_ac46.a(aec.o)
 .debug_loc     0x00009d42      0x2b2 code\libs\aec_ac46.a(cdn3_btsyn.o)
 .debug_loc     0x00009ff4      0x1c1 code\libs\aec_ac46.a(AGC.o)
 .debug_loc     0x0000a1b5      0x18b code\libs\libDAGC.a(DAGC.o)
 .debug_loc     0x0000a340      0x401 code\libs\libDAGC.a(AGC.o)
 .debug_loc     0x0000a741      0x3ff code\libs\lib_wav_decode.a(testwav.o)
 .debug_loc     0x0000ab40      0x339 code\libs\lib_wav_decode.a(wavdec_api.o)
 .debug_loc     0x0000ae79      0x5de code\libs\lib_wav_decode.a(ima_adpcm.o)
 .debug_loc     0x0000b457      0x29f code\libs\lib_wav_decode.a(msadpcmdec.o)
 .debug_loc     0x0000b6f6      0x8e0 code\libs\ef_api_ac46.a(audio_ef.o)
 .debug_loc     0x0000bfd6     0x1120 code\libs\dev_mg_lib.a(drv_manage.o)
 .debug_loc     0x0000d0f6       0xfa code\libs\dev_mg_lib.a(mango_dev_cache.o)
 .debug_loc     0x0000d1f0      0x42d code\libs\dev_mg_lib.a(mbr.o)
 .debug_loc     0x0000d61d      0x176 code\libs\dev_mg_lib.a(dev_updata_mode.o)
 .debug_loc     0x0000d793      0x337 code\libs\dev_mg_lib.a(dev_operate.o)
 .debug_loc     0x0000daca      0x8fd code\libs\dev_mg_lib.a(fat_io.o)
 .debug_loc     0x0000e3c7     0x1024 code\libs\dev_mg_lib.a(fs_io.o)
 .debug_loc     0x0000f3eb     0x1905 code\libs\dev_mg_lib.a(logic_dev_list.o)
 .debug_loc     0x00010cf0      0x886 code\libs\dev_mg_lib.a(syd_io.o)
 .debug_loc     0x00011576      0x69e code\libs\dev_mg_lib.a(vfs.o)
 .debug_loc     0x00011c14      0xe52 code\libs\libtff.a(ff_api.o)
 .debug_loc     0x00012a66     0x2b10 code\libs\libtff.a(tff.o)
 .debug_loc     0x00015576      0x701 code\libs\sd.a(mango_dev_sd.o)
 .debug_loc     0x00015c77      0x9b2 code\libs\sd.a(sd_controller_interface.o)
 .debug_loc     0x00016629       0xe8 code\libs\sd.a(sd_host_read.o)
 .debug_loc     0x00016711      0x112 code\libs\sd.a(sd_host_read_end.o)
 .debug_loc     0x00016823       0xa4 code\libs\sd.a(sd_host_unmount.o)
 .debug_loc     0x000168c7       0xdd code\libs\sd.a(sd_host_write.o)
 .debug_loc     0x000169a4      0x107 code\libs\sd.a(sd_host_write_end.o)
 .debug_loc     0x00016aab      0x158 code\libs\sd.a(sdmmc_init.o)
 .debug_loc     0x00016c03       0x80 code\libs\sd.a(suspend_sdmmc.o)
 .debug_loc     0x00016c83      0x13e code\libs\sd.a(sd_host_send_csd.o)
 .debug_loc     0x00016dc1       0xc8 code\libs\sd.a(sd_host_stop_trans.o)
 .debug_loc     0x00016e89      0x260 code\libs\sd.a(sd_host_hw.o)
 .debug_loc     0x000170e9       0xb1 code\libs\sd.a(sd_wait_idle.o)
 .debug_loc     0x0001719a      0x29b code\libs\sd.a(sdmmc_det.o)
 .debug_loc     0x00017435      0x63d code\libs\sd.a(sd_host_reg.o)
 .debug_loc     0x00017a72       0x93 code\libs\sd.a(sd_read_start.o)
 .debug_loc     0x00017b05       0xbf code\libs\sd.a(sd_send_command.o)
 .debug_loc     0x00017bc4       0x93 code\libs\sd.a(sd_write_start.o)
 .debug_loc     0x00017c57       0x93 code\libs\sd.a(sd_host_status.o)
 .debug_loc     0x00017cea       0x62 code\libs\sd.a(sd_host_init.o)
 .debug_loc     0x00017d4c       0x8d code\libs\sd.a(sd_host_mount.o)
 .debug_loc     0x00017dd9       0x75 code\libs\sd.a(sd_host_timeout.o)
 .debug_loc     0x00017e4e      0x12e code\libs\sd.a(sd_init.o)
 .debug_loc     0x00017f7c       0xde code\libs\sd.a(sdmmc_host_set_bus_width.o)
 .debug_loc     0x0001805a       0xcb code\libs\sd.a(sdmmc_host_set_hispeed.o)
 .debug_loc     0x00018125       0x1e code\libs\sd.a(mmc_host_send_rca.o)
 .debug_loc     0x00018143       0x81 code\libs\sd.a(mmc_host_set_bus_width.o)
 .debug_loc     0x000181c4       0x75 code\libs\sd.a(mmc_host_set_hispeed.o)
 .debug_loc     0x00018239      0x10a code\libs\sd.a(sd_host_sd_status.o)
 .debug_loc     0x00018343       0x81 code\libs\sd.a(sd_host_send_rca.o)
 .debug_loc     0x000183c4       0xd7 code\libs\sd.a(sd_host_set_bus_width.o)
 .debug_loc     0x0001849b       0xa7 code\libs\sd.a(sd_host_set_hispeed.o)
 .debug_loc     0x00018542       0xf0 code\libs\sd.a(sd_host_switch_func.o)
 .debug_loc     0x00018632       0x3c code\libs\sd.a(sd_select_card.o)
 .debug_loc     0x0001866e       0xf4 code\libs\sd.a(sd_send_scr.o)
 .debug_loc     0x00018762       0xfd code\libs\sd.a(sd_chk_ctl.o)
 .debug_loc     0x0001885f      0x1a4 code\libs\sd.a(sd_host_identification.o)
 .debug_loc     0x00018a03       0x1e code\libs\sd.a(sd_host_app_cmd.o)
 .debug_loc     0x00018a21      0x112 code\libs\sd.a(sd_host_send_op_cond.o)
 .debug_loc     0x00018b33      0x29b code\libs\usb.a(mango_dev_usb_slave.o)
 .debug_loc     0x00018dce      0x12b code\libs\usb.a(usb_device_mount.o)
 .debug_loc     0x00018ef9       0x2c code\libs\usb.a(usb_device_unmount.o)
 .debug_loc     0x00018f25      0x130 code\libs\usb.a(usb_slave_mic_adc.o)
 .debug_loc     0x00019055      0x132 code\libs\usb.a(usb_slave_spk_dac.o)
 .debug_loc     0x00019187       0xee code\libs\usb.a(usbs_ctl_isr.o)
 .debug_loc     0x00019275       0x9b code\libs\usb.a(usb_device_io.o)
 .debug_loc     0x00019310       0xc0 code\libs\usb.a(usb_hid_key.o)
 .debug_loc     0x000193d0      0x404 code\libs\usb.a(usb_slave_ctl.o)
 .debug_loc     0x000197d4      0x817 code\libs\usb.a(usb_slave_scsi_libs.o)
 .debug_loc     0x00019feb      0x320 code\libs\usb.a(usb_slave_sd.o)
 .debug_loc     0x0001a30b       0x52 code\libs\usb.a(usb_slave_online.o)
 .debug_loc     0x0001a35d      0x552 code\libs\usb.a(mango_dev_usb.o)
 .debug_loc     0x0001a8af       0x21 code\libs\usb.a(usb_global_var.o)
 .debug_loc     0x0001a8d0       0xbb code\libs\usb.a(usb_host_mount.o)
 .debug_loc     0x0001a98b       0x99 code\libs\usb.a(usb_host_read.o)
 .debug_loc     0x0001aa24       0xb4 code\libs\usb.a(usb_host_write.o)
 .debug_loc     0x0001aad8       0x44 code\libs\usb.a(usb_read_remain.o)
 .debug_loc     0x0001ab1c       0x3f code\libs\usb.a(usb_suspend.o)
 .debug_loc     0x0001ab5b      0x141 code\libs\usb.a(USB_Host_dev_enum_libs.o)
 .debug_loc     0x0001ac9c       0xda code\libs\usb.a(usb_control_transfers.o)
 .debug_loc     0x0001ad76      0x1a2 code\libs\usb.a(usb_ctlXfer.o)
 .debug_loc     0x0001af18      0x138 code\libs\usb.a(usb_descriptor_parser.o)
 .debug_loc     0x0001b050      0x142 code\libs\usb.a(usb_bulk_only_receive.o)
 .debug_loc     0x0001b192       0xe8 code\libs\usb.a(usb_bulk_only_transfer.o)
 .debug_loc     0x0001b27a       0x89 code\libs\usb.a(usb_ufi_read10.o)
 .debug_loc     0x0001b303       0x6d code\libs\usb.a(usb_ufi_write10.o)
 .debug_loc     0x0001b370      0x1a7 code\libs\usb.a(usbh_msd_enum.o)
 .debug_loc     0x0001b517      0x102 code\libs\usb.a(usbh_msd_parser.o)
 .debug_loc     0x0001b619       0xcc code\libs\usb.a(usb_host_reg_libs.o)
 .debug_loc     0x0001b6e5       0x6a code\libs\usb.a(usb_reg.o)
 .debug_loc     0x0001b74f       0x3f code\libs\usb.a(usb_host_status.o)
 .debug_loc     0x0001b78e      0x15e code\libs\usb.a(usb_online.o)
 .debug_loc     0x0001b8ec      0x1ec code\libs\usb.a(set_descriptor_libs.o)
 .debug_loc     0x0001bad8       0x57 code\libs\usb.a(usb_host_timeout.o)
 .debug_loc     0x0001bb2f       0x92 code\libs\usb.a(get_max_LUN.o)
 .debug_loc     0x0001bbc1       0x9a code\libs\usb.a(usb_host_clear_feature.o)
 .debug_loc     0x0001bc5b       0x44 code\libs\usb.a(CBW_init.o)
 .debug_loc     0x0001bc9f       0xf7 code\libs\usb.a(usb_bulk_only_send.o)
 .debug_loc     0x0001bd96      0x1a9 code\libs\usb.a(usb_host_scsi_cmd_libs.o)
 .debug_loc     0x0001bf3f      0x3d3 code\libs\librtos_bt15.a(os_core.o)
 .debug_loc     0x0001c312      0x2ea code\libs\librtos_bt15.a(os_mutex.o)
 .debug_loc     0x0001c5fc      0x263 code\libs\librtos_bt15.a(os_sem.o)
 .debug_loc     0x0001c85f     0x13db code\libs\librtos_bt15.a(os_task.o)
 .debug_loc     0x0001dc3a       0x74 code\libs\librtos_bt15.a(os_time.o)
 .debug_loc     0x0001dcae      0x127 code\libs\librtos_bt15.a(os_cpu_c.o)
 .debug_loc     0x0001ddd5      0x77a code\libs\lib_cache_vm_bt15.a(vm.o)
 .debug_loc     0x0001e54f      0x7dd code\libs\sydf_ac46.a(syd_file.o)
 .debug_loc     0x0001ed2c      0x54f code\libs\lib_aac_decode.a(aac_main.o)
 .debug_loc     0x0001f27b      0x12e code\libs\lib_aac_decode.a(common.o)
 .debug_loc     0x0001f3a9      0x313 code\libs\lib_aac_decode.a(decoder.o)
 .debug_loc     0x0001f6bc      0x73b code\libs\lib_aac_decode.a(filtbank.o)
 .debug_loc     0x0001fdf7      0x40f code\libs\lib_aac_decode.a(mdct.o)
 .debug_loc     0x00020206      0x204 code\libs\lib_aac_decode.a(output.o)
 .debug_loc     0x0002040a     0x1b82 code\libs\lib_aac_decode.a(syntax.o)
 .debug_loc     0x00021f8c      0x4ee code\libs\lib_aac_decode.a(bits.o)
 .debug_loc     0x0002247a      0x7de code\libs\lib_aac_decode.a(cfft.o)
 .debug_loc     0x00022c58      0x966 code\libs\lib_aac_decode.a(huffman.o)
 .debug_loc     0x000235be       0xca code\libs\lib_aac_decode.a(pulse.o)
 .debug_loc     0x00023688      0x980 code\libs\lib_aac_decode.a(specrec.o)
 .debug_loc     0x00024008      0x8b7 code\libs\lib_aac_decode.a(tns.o)
 .debug_loc     0x000248bf      0x252 code\libs\lib_aac_decode.a(is.o)
 .debug_loc     0x00024b11      0x1f9 code\libs\lib_aac_decode.a(ms.o)
 .debug_loc     0x00024d0a       0xe6 code\libs\clk_ac46.a(clock_api.o)
 .debug_loc     0x00024df0      0x3cb code\libs\clk_ac46.a(clock_moudle.o)
 .debug_loc     0x000251bb      0x735 code\libs\clk_ac46.a(clock_app.o)
 .debug_loc     0x000258f0      0x609 code\libs\clk_ac46.a(pll_moudle.o)
 .debug_loc     0x00025ef9      0x9d4 code\libs\lib_flac_decode.a(mtst_flac.o)
 .debug_loc     0x000268cd     0x1369 code\libs\lib_flac_decode.a(flacdec.o)
 .debug_loc     0x00027c36     0x10ca code\libs\lib_encode.a(encode.o)
 .debug_loc     0x00028d00      0x2f5 code\libs\lib_encode.a(dev_write_api.o)
 .debug_loc     0x00028ff5      0x167 C:\JL\dv10\lib\libc.a(lib_a-memcmp.o)
 .debug_loc     0x0002915c      0x17d C:\JL\dv10\lib\libc.a(lib_a-memcpy.o)
 .debug_loc     0x000292d9      0x1dc C:\JL\dv10\lib\libc.a(lib_a-memmove.o)
 .debug_loc     0x000294b5      0x1a1 C:\JL\dv10\lib\libc.a(lib_a-memset.o)
 .debug_loc     0x00029656       0x5f C:\JL\dv10\lib\libc.a(lib_a-rand.o)
 .debug_loc     0x000296b5      0x112 C:\JL\dv10\lib\libc.a(lib_a-strcmp.o)
 .debug_loc     0x000297c7      0x117 C:\JL\dv10\lib\libc.a(lib_a-strcpy.o)
 .debug_loc     0x000298de      0x115 C:\JL\dv10\lib\libc.a(lib_a-strlen.o)
 .debug_loc     0x000299f3      0xd2b C:\JL\dv10\lib\libc.a(lib_a-strstr.o)
 .debug_loc     0x0002a71e      0x19e C:\JL\dv10\lib\libc.a(lib_a-memchr.o)
 .debug_loc     0x0002a8bc      0x1f7 C:\JL\dv10\lib\libc.a(lib_a-strchr.o)
 .debug_loc     0x0002aab3       0xa5 C:\JL\dv10\lib\libgcc.a(_lshrdi3.o)
 .debug_loc     0x0002ab58       0xa5 C:\JL\dv10\lib\libgcc.a(_ashldi3.o)
 .debug_loc     0x0002abfd      0xeff C:\JL\dv10\lib\libgcc.a(_divdi3.o)
 .debug_loc     0x0002bafc      0xd1a C:\JL\dv10\lib\libgcc.a(_udivdi3.o)
 .debug_loc     0x0002c816      0xd28 C:\JL\dv10\lib\libgcc.a(_umoddi3.o)
 .debug_loc     0x0002d53e      0x698 C:\JL\dv10\lib\libgcc.a(divsf3.o)
 .debug_loc     0x0002dbd6      0xcde C:\JL\dv10\lib\libgcc.a(subsf3.o)
 .debug_loc     0x0002e8b4       0xf6 C:\JL\dv10\lib\libgcc.a(fixsfsi.o)
 .debug_loc     0x0002e9aa      0x1ad C:\JL\dv10\lib\libgcc.a(floatsisf.o)
 .debug_loc     0x0002eb57       0x5c C:\JL\dv10\lib\libgcc.a(_clzsi2.o)

.debug_pubnames
                0x00000000     0x87b0
 .debug_pubnames
                0x00000000       0x6b obj\Debug\\code\apps\bt\aec\aec_api.o
 .debug_pubnames
                0x0000006b      0x158 obj\Debug\\code\apps\bt\btstack\bt_configs_user.o
 .debug_pubnames
                0x000001c3      0x241 obj\Debug\\code\apps\bt\btstack\bt_key_deal.o
 .debug_pubnames
                0x00000404       0x52 obj\Debug\\code\apps\bt\btstack\bt_key_msg.o
 .debug_pubnames
                0x00000456       0xb6 obj\Debug\\code\apps\bt\btstack\fcc_test.o
 .debug_pubnames
                0x0000050c      0x2b1 obj\Debug\\code\apps\fm\fm_api.o
 .debug_pubnames
                0x000007bd       0x52 obj\Debug\\code\apps\fm\fm_key.o
 .debug_pubnames
                0x0000080f       0x5b obj\Debug\\code\apps\fm\fm_prompt.o
 .debug_pubnames
                0x0000086a       0xb5 obj\Debug\\code\apps\fm\fm_radio.o
 .debug_pubnames
                0x0000091f       0x84 obj\Debug\\code\apps\idle\idle.o
 .debug_pubnames
                0x000009a3       0x56 obj\Debug\\code\apps\idle\idle_key.o
 .debug_pubnames
                0x000009f9       0xa7 obj\Debug\\code\apps\linein\dev_linein.o
 .debug_pubnames
                0x00000aa0      0x15a obj\Debug\\code\apps\linein\linein.o
 .debug_pubnames
                0x00000bfa       0x5a obj\Debug\\code\apps\linein\linein_key.o
 .debug_pubnames
                0x00000c54       0x63 obj\Debug\\code\apps\linein\linein_prompt.o
 .debug_pubnames
                0x00000cb7      0x16f obj\Debug\\code\apps\main\main.o
 .debug_pubnames
                0x00000e26       0x56 obj\Debug\\code\apps\main\main_key.o
 .debug_pubnames
                0x00000e7c       0xb3 obj\Debug\\code\apps\main\vm_api.o
 .debug_pubnames
                0x00000f2f       0xa9 obj\Debug\\code\apps\music\ef_api.o
 .debug_pubnames
                0x00000fd8      0x21b obj\Debug\\code\apps\music\music.o
 .debug_pubnames
                0x000011f3       0xc2 obj\Debug\\code\apps\music\music_info.o
 .debug_pubnames
                0x000012b5       0x58 obj\Debug\\code\apps\music\music_key.o
 .debug_pubnames
                0x0000130d       0xac obj\Debug\\code\apps\music\music_prompt.o
 .debug_pubnames
                0x000013b9       0x9d obj\Debug\\code\apps\music\play_sel.o
 .debug_pubnames
                0x00001456       0x63 obj\Debug\\code\apps\record\rec_key.o
 .debug_pubnames
                0x000014b9      0x126 obj\Debug\\code\apps\record\record.o
 .debug_pubnames
                0x000015df       0x55 obj\Debug\\code\apps\rtc\irtc.o
 .debug_pubnames
                0x00001634       0x67 obj\Debug\\code\apps\rtc\rtc.o
 .debug_pubnames
                0x0000169b       0x32 obj\Debug\\code\apps\rtc\rtc_key.o
 .debug_pubnames
                0x000016cd       0x55 obj\Debug\\code\apps\rtc\rtc_low_power.o
 .debug_pubnames
                0x00001722       0x5d obj\Debug\\code\apps\rtc\rtc_prompt.o
 .debug_pubnames
                0x0000177f       0x55 obj\Debug\\code\apps\rtc\rtc_setting.o
 .debug_pubnames
                0x000017d4      0x103 obj\Debug\\code\apps\usb_device\dev_pc.o
 .debug_pubnames
                0x000018d7       0x5b obj\Debug\\code\apps\usb_device\pc_prompt.o
 .debug_pubnames
                0x00001932       0x66 obj\Debug\\code\apps\usb_device\usb_device.o
 .debug_pubnames
                0x00001998       0x63 obj\Debug\\code\apps\usb_device\usb_key.o
 .debug_pubnames
                0x000019fb       0x49 obj\Debug\\code\common\ASCII_lib.o
 .debug_pubnames
                0x00001a44       0x86 obj\Debug\\code\common\common.o
 .debug_pubnames
                0x00001aca       0x8e obj\Debug\\code\common\dev_manage\dev_ctl.o
 .debug_pubnames
                0x00001b58       0x58 obj\Debug\\code\common\file_operate\file_operate.o
 .debug_pubnames
                0x00001bb0       0x3a obj\Debug\\code\common\os_api\os_api.o
 .debug_pubnames
                0x00001bea      0x120 obj\Debug\\code\common\os_api\task_manage.o
 .debug_pubnames
                0x00001d0a       0x57 obj\Debug\\code\common\printf-stdarg.o
 .debug_pubnames
                0x00001d61      0x3ff obj\Debug\\code\common\ui\led7_drv.o
 .debug_pubnames
                0x00002160       0x4d obj\Debug\\code\common\ui\led_ui_api.o
 .debug_pubnames
                0x000021ad       0x78 obj\Debug\\code\common\ui\ui_common.o
 .debug_pubnames
                0x00002225       0x48 obj\Debug\\code\common\voice_prompt\voice_prompt.o
 .debug_pubnames
                0x0000226d       0xaf obj\Debug\\code\cpu\ac46\board\board_bt15_v0.o
 .debug_pubnames
                0x0000231c       0x32 obj\Debug\\code\cpu\ac46\driver\M62429.o
 .debug_pubnames
                0x0000234e       0x69 obj\Debug\\code\cpu\ac46\driver\clock.o
 .debug_pubnames
                0x000023b7      0x187 obj\Debug\\code\cpu\ac46\driver\dac.o
 .debug_pubnames
                0x0000253e       0x32 obj\Debug\\code\cpu\ac46\driver\encoder.o
 .debug_pubnames
                0x00002570       0x9f obj\Debug\\code\cpu\ac46\driver\interrupt_isr.o
 .debug_pubnames
                0x0000260f      0x110 obj\Debug\\code\cpu\ac46\driver\key.o
 .debug_pubnames
                0x0000271f       0xb5 obj\Debug\\code\cpu\ac46\driver\key_drv_ad.o
 .debug_pubnames
                0x000027d4       0x32 obj\Debug\\code\cpu\ac46\driver\key_drv_io.o
 .debug_pubnames
                0x00002806       0xbf obj\Debug\\code\cpu\ac46\driver\key_drv_ir.o
 .debug_pubnames
                0x000028c5       0x32 obj\Debug\\code\cpu\ac46\driver\key_drv_tch.o
 .debug_pubnames
                0x000028f7       0xd9 obj\Debug\\code\cpu\ac46\driver\key_voice.o
 .debug_pubnames
                0x000029d0       0x32 obj\Debug\\code\cpu\ac46\driver\kok_detect.o
 .debug_pubnames
                0x00002a02       0x9e obj\Debug\\code\cpu\ac46\driver\ladc.o
 .debug_pubnames
                0x00002aa0       0xb2 obj\Debug\\code\cpu\ac46\driver\led.o
 .debug_pubnames
                0x00002b52       0x45 obj\Debug\\code\cpu\ac46\driver\low_power.o
 .debug_pubnames
                0x00002b97       0x32 obj\Debug\\code\cpu\ac46\driver\pt2313.o
 .debug_pubnames
                0x00002bc9       0xc0 obj\Debug\\code\cpu\ac46\driver\sys_detect.o
 .debug_pubnames
                0x00002c89       0xff obj\Debug\\code\cpu\ac46\driver\timer.o
 .debug_pubnames
                0x00002d88      0x172 obj\Debug\\code\cpu\ac46\driver\uart.o
 .debug_pubnames
                0x00002efa       0x2e code\libs\dec_lib_ac46.a(music_api.o)
 .debug_pubnames
                0x00002f28       0x6c code\libs\dec_lib_ac46.a(sup_dec_op.o)
 .debug_pubnames
                0x00002f94      0x19a code\libs\dec_lib_ac46.a(decoder_phy.o)
 .debug_pubnames
                0x0000312e       0x89 code\libs\lib_dac.a(dac_init.o)
 .debug_pubnames
                0x000031b7      0x305 code\libs\lib_dac.a(dac_channel.o)
 .debug_pubnames
                0x000034bc       0x32 code\libs\sys_cfg_ac46.a(pll.o)
 .debug_pubnames
                0x000034ee       0x2b code\libs\sys_cfg_ac46.a(system_cfg_file.o)
 .debug_pubnames
                0x00003519       0xee code\libs\sys_cfg_ac46.a(hwi.o)
 .debug_pubnames
                0x00003607       0xf5 code\libs\sys_cfg_ac46.a(irq.o)
 .debug_pubnames
                0x000036fc       0x85 code\libs\sys_cfg_ac46.a(system_cfg.o)
 .debug_pubnames
                0x00003781      0x1ad code\libs\aec_ac46.a(aec.o)
 .debug_pubnames
                0x0000392e       0xae code\libs\aec_ac46.a(aec_tst_sd.o)
 .debug_pubnames
                0x000039dc       0x80 code\libs\aec_ac46.a(cdn3_btsyn.o)
 .debug_pubnames
                0x00003a5c       0x22 code\libs\aec_ac46.a(AGC.o)
 .debug_pubnames
                0x00003a7e       0x47 code\libs\libDAGC.a(DAGC.o)
 .debug_pubnames
                0x00003ac5       0x36 code\libs\libDAGC.a(AGC.o)
 .debug_pubnames
                0x00003afb       0x42 code\libs\lib_wav_decode.a(testwav.o)
 .debug_pubnames
                0x00003b3d       0x47 code\libs\lib_wav_decode.a(wavdec_api.o)
 .debug_pubnames
                0x00003b84       0x38 code\libs\lib_wav_decode.a(ima_adpcm.o)
 .debug_pubnames
                0x00003bbc       0x27 code\libs\lib_wav_decode.a(msadpcmdec.o)
 .debug_pubnames
                0x00003be3      0x101 code\libs\ef_api_ac46.a(audio_ef.o)
 .debug_pubnames
                0x00003ce4       0xe0 code\libs\dev_mg_lib.a(drv_manage.o)
 .debug_pubnames
                0x00003dc4      0x118 code\libs\dev_mg_lib.a(mango_dev_cache.o)
 .debug_pubnames
                0x00003edc       0x80 code\libs\dev_mg_lib.a(mbr.o)
 .debug_pubnames
                0x00003f5c       0x33 code\libs\dev_mg_lib.a(dev_updata_mode.o)
 .debug_pubnames
                0x00003f8f       0x77 code\libs\dev_mg_lib.a(dev_operate.o)
 .debug_pubnames
                0x00004006      0x18f code\libs\dev_mg_lib.a(fat_io.o)
 .debug_pubnames
                0x00004195      0x195 code\libs\dev_mg_lib.a(fs_io.o)
 .debug_pubnames
                0x0000432a      0x2b9 code\libs\dev_mg_lib.a(logic_dev_list.o)
 .debug_pubnames
                0x000045e3      0x197 code\libs\dev_mg_lib.a(syd_io.o)
 .debug_pubnames
                0x0000477a       0xf2 code\libs\dev_mg_lib.a(vfs.o)
 .debug_pubnames
                0x0000486c      0x160 code\libs\libtff.a(ff_api.o)
 .debug_pubnames
                0x000049cc      0x2dc code\libs\libtff.a(tff.o)
 .debug_pubnames
                0x00004ca8      0x27d code\libs\sd.a(mango_dev_sd.o)
 .debug_pubnames
                0x00004f25      0x18b code\libs\sd.a(sd_controller_interface.o)
 .debug_pubnames
                0x000050b0       0x52 code\libs\sd.a(sd_global_var.o)
 .debug_pubnames
                0x00005102       0x3e code\libs\sd.a(sd_host_read.o)
 .debug_pubnames
                0x00005140       0x22 code\libs\sd.a(sd_host_read_end.o)
 .debug_pubnames
                0x00005162       0x21 code\libs\sd.a(sd_host_unmount.o)
 .debug_pubnames
                0x00005183       0x41 code\libs\sd.a(sd_host_write.o)
 .debug_pubnames
                0x000051c4       0x23 code\libs\sd.a(sd_host_write_end.o)
 .debug_pubnames
                0x000051e7       0x51 code\libs\sd.a(sdmmc_init.o)
 .debug_pubnames
                0x00005238       0x21 code\libs\sd.a(suspend_sdmmc.o)
 .debug_pubnames
                0x00005259       0x3b code\libs\sd.a(sd_host_send_csd.o)
 .debug_pubnames
                0x00005294       0x29 code\libs\sd.a(sd_host_stop_trans.o)
 .debug_pubnames
                0x000052bd       0x56 code\libs\sd.a(sd_host_hw.o)
 .debug_pubnames
                0x00005313       0x23 code\libs\sd.a(sd_wait_idle.o)
 .debug_pubnames
                0x00005336       0x70 code\libs\sd.a(sdmmc_det.o)
 .debug_pubnames
                0x000053a6      0x226 code\libs\sd.a(sd_host_reg.o)
 .debug_pubnames
                0x000055cc       0x24 code\libs\sd.a(sd_read_start.o)
 .debug_pubnames
                0x000055f0       0x26 code\libs\sd.a(sd_send_command.o)
 .debug_pubnames
                0x00005616       0x25 code\libs\sd.a(sd_write_start.o)
 .debug_pubnames
                0x0000563b       0x39 code\libs\sd.a(sd_host_status.o)
 .debug_pubnames
                0x00005674       0x23 code\libs\sd.a(sd_host_init.o)
 .debug_pubnames
                0x00005697       0x1f code\libs\sd.a(sd_host_mount.o)
 .debug_pubnames
                0x000056b6       0x26 code\libs\sd.a(sd_host_timeout.o)
 .debug_pubnames
                0x000056dc       0x23 code\libs\sd.a(sd_init.o)
 .debug_pubnames
                0x000056ff       0x27 code\libs\sd.a(sdmmc_host_set_bus_width.o)
 .debug_pubnames
                0x00005726       0x25 code\libs\sd.a(sdmmc_host_set_hispeed.o)
 .debug_pubnames
                0x0000574b       0x28 code\libs\sd.a(mmc_host_send_rca.o)
 .debug_pubnames
                0x00005773       0x2d code\libs\sd.a(mmc_host_set_bus_width.o)
 .debug_pubnames
                0x000057a0       0x2b code\libs\sd.a(mmc_host_set_hispeed.o)
 .debug_pubnames
                0x000057cb       0x2b code\libs\sd.a(sd_host_all_send_cid.o)
 .debug_pubnames
                0x000057f6       0x24 code\libs\sd.a(sd_host_reset.o)
 .debug_pubnames
                0x0000581a       0x28 code\libs\sd.a(sd_host_sd_status.o)
 .debug_pubnames
                0x00005842       0x2b code\libs\sd.a(sd_host_send_if_cond.o)
 .debug_pubnames
                0x0000586d       0x27 code\libs\sd.a(sd_host_send_rca.o)
 .debug_pubnames
                0x00005894       0x2c code\libs\sd.a(sd_host_set_bus_width.o)
 .debug_pubnames
                0x000058c0       0x2a code\libs\sd.a(sd_host_set_hispeed.o)
 .debug_pubnames
                0x000058ea       0x2a code\libs\sd.a(sd_host_switch_func.o)
 .debug_pubnames
                0x00005914       0x25 code\libs\sd.a(sd_select_card.o)
 .debug_pubnames
                0x00005939       0x22 code\libs\sd.a(sd_send_scr.o)
 .debug_pubnames
                0x0000595b       0x21 code\libs\sd.a(sd_chk_ctl.o)
 .debug_pubnames
                0x0000597c       0x2d code\libs\sd.a(sd_host_identification.o)
 .debug_pubnames
                0x000059a9       0x2c code\libs\sd.a(mmc_host_send_op_cond.o)
 .debug_pubnames
                0x000059d5       0x26 code\libs\sd.a(sd_host_app_cmd.o)
 .debug_pubnames
                0x000059fb       0x2b code\libs\sd.a(sd_host_send_op_cond.o)
 .debug_pubnames
                0x00005a26      0x166 code\libs\usb.a(mango_dev_usb_slave.o)
 .debug_pubnames
                0x00005b8c       0x60 code\libs\usb.a(usb_device_mount.o)
 .debug_pubnames
                0x00005bec       0x36 code\libs\usb.a(usb_device_unmount.o)
 .debug_pubnames
                0x00005c22       0x72 code\libs\usb.a(usb_slave_mic_adc.o)
 .debug_pubnames
                0x00005c94       0x84 code\libs\usb.a(usb_slave_spk_dac.o)
 .debug_pubnames
                0x00005d18       0x77 code\libs\usb.a(usbs_ctl_isr.o)
 .debug_pubnames
                0x00005d8f       0x35 code\libs\usb.a(usb_class_setting_libs.o)
 .debug_pubnames
                0x00005dc4       0xe5 code\libs\usb.a(usb_device_io.o)
 .debug_pubnames
                0x00005ea9       0x43 code\libs\usb.a(usb_hid_key.o)
 .debug_pubnames
                0x00005eec       0xb5 code\libs\usb.a(usb_slave_ctl.o)
 .debug_pubnames
                0x00005fa1       0xb4 code\libs\usb.a(usb_slave_scsi_libs.o)
 .debug_pubnames
                0x00006055       0x48 code\libs\usb.a(usb_slave_sd.o)
 .debug_pubnames
                0x0000609d       0x4d code\libs\usb.a(usb_device_status.o)
 .debug_pubnames
                0x000060ea       0x3a code\libs\usb.a(usb_slave_online.o)
 .debug_pubnames
                0x00006124       0xf9 code\libs\usb.a(mango_dev_usb.o)
 .debug_pubnames
                0x0000621d       0x9b code\libs\usb.a(usb_global_var.o)
 .debug_pubnames
                0x000062b8       0x32 code\libs\usb.a(usb_host_mount.o)
 .debug_pubnames
                0x000062ea       0x31 code\libs\usb.a(usb_host_read.o)
 .debug_pubnames
                0x0000631b       0x34 code\libs\usb.a(usb_host_unmount.o)
 .debug_pubnames
                0x0000634f       0x32 code\libs\usb.a(usb_host_write.o)
 .debug_pubnames
                0x00006381       0x33 code\libs\usb.a(usb_read_remain.o)
 .debug_pubnames
                0x000063b4       0x2f code\libs\usb.a(usb_suspend.o)
 .debug_pubnames
                0x000063e3       0x52 code\libs\usb.a(USB_Host_dev_enum_libs.o)
 .debug_pubnames
                0x00006435       0x39 code\libs\usb.a(usb_control_transfers.o)
 .debug_pubnames
                0x0000646e       0x2f code\libs\usb.a(usb_ctlXfer.o)
 .debug_pubnames
                0x0000649d       0x39 code\libs\usb.a(usb_descriptor_parser.o)
 .debug_pubnames
                0x000064d6       0x39 code\libs\usb.a(usb_bulk_only_receive.o)
 .debug_pubnames
                0x0000650f       0x3a code\libs\usb.a(usb_bulk_only_transfer.o)
 .debug_pubnames
                0x00006549       0x32 code\libs\usb.a(usb_ufi_read10.o)
 .debug_pubnames
                0x0000657b       0x33 code\libs\usb.a(usb_ufi_write10.o)
 .debug_pubnames
                0x000065ae       0x31 code\libs\usb.a(usbh_msd_enum.o)
 .debug_pubnames
                0x000065df       0x33 code\libs\usb.a(usbh_msd_parser.o)
 .debug_pubnames
                0x00006612       0x58 code\libs\usb.a(usb_host_reg_libs.o)
 .debug_pubnames
                0x0000666a       0x50 code\libs\usb.a(usb_reg.o)
 .debug_pubnames
                0x000066ba       0x72 code\libs\usb.a(usb_host_status.o)
 .debug_pubnames
                0x0000672c       0x7d code\libs\usb.a(usb_online.o)
 .debug_pubnames
                0x000067a9      0x143 code\libs\usb.a(Descriptor.o)
 .debug_pubnames
                0x000068ec       0x32 code\libs\usb.a(set_descriptor_libs.o)
 .debug_pubnames
                0x0000691e       0x34 code\libs\usb.a(usb_host_timeout.o)
 .debug_pubnames
                0x00006952       0x2f code\libs\usb.a(get_max_LUN.o)
 .debug_pubnames
                0x00006981       0x3a code\libs\usb.a(usb_host_clear_feature.o)
 .debug_pubnames
                0x000069bb       0x2c code\libs\usb.a(CBW_init.o)
 .debug_pubnames
                0x000069e7       0x36 code\libs\usb.a(usb_bulk_only_send.o)
 .debug_pubnames
                0x00006a1d       0x84 code\libs\usb.a(usb_host_scsi_cmd_libs.o)
 .debug_pubnames
                0x00006aa1      0x17f code\libs\librtos_bt15.a(os_core.o)
 .debug_pubnames
                0x00006c20       0x65 code\libs\librtos_bt15.a(os_mutex.o)
 .debug_pubnames
                0x00006c85       0x68 code\libs\librtos_bt15.a(os_sem.o)
 .debug_pubnames
                0x00006ced      0x183 code\libs\librtos_bt15.a(os_task.o)
 .debug_pubnames
                0x00006e70       0x50 code\libs\librtos_bt15.a(os_time.o)
 .debug_pubnames
                0x00006ec0       0x5f code\libs\librtos_bt15.a(os_cpu_c.o)
 .debug_pubnames
                0x00006f1f       0xcc code\libs\lib_cache_vm_bt15.a(vm.o)
 .debug_pubnames
                0x00006feb      0x11f code\libs\sydf_ac46.a(syd_file.o)
 .debug_pubnames
                0x0000710a       0x61 code\libs\lib_aac_decode.a(aac_main.o)
 .debug_pubnames
                0x0000716b       0xa4 code\libs\lib_aac_decode.a(common.o)
 .debug_pubnames
                0x0000720f       0x7d code\libs\lib_aac_decode.a(decoder.o)
 .debug_pubnames
                0x0000728c       0x38 code\libs\lib_aac_decode.a(filtbank.o)
 .debug_pubnames
                0x000072c4       0x34 code\libs\lib_aac_decode.a(mdct.o)
 .debug_pubnames
                0x000072f8       0x24 code\libs\lib_aac_decode.a(output.o)
 .debug_pubnames
                0x0000731c       0x41 code\libs\lib_aac_decode.a(syntax.o)
 .debug_pubnames
                0x0000735d       0xa2 code\libs\lib_aac_decode.a(bits.o)
 .debug_pubnames
                0x000073ff       0x58 code\libs\lib_aac_decode.a(cfft.o)
 .debug_pubnames
                0x00007457      0x1c0 code\libs\lib_aac_decode.a(huffman.o)
 .debug_pubnames
                0x00007617       0x23 code\libs\lib_aac_decode.a(pulse.o)
 .debug_pubnames
                0x0000763a      0x226 code\libs\lib_aac_decode.a(specrec.o)
 .debug_pubnames
                0x00007860       0x80 code\libs\lib_aac_decode.a(tns.o)
 .debug_pubnames
                0x000078e0       0x56 code\libs\lib_aac_decode.a(is.o)
 .debug_pubnames
                0x00007936       0x2d code\libs\lib_aac_decode.a(ms.o)
 .debug_pubnames
                0x00007963       0x21 code\libs\clk_ac46.a(clock_api.o)
 .debug_pubnames
                0x00007984      0x427 code\libs\clk_ac46.a(clock_moudle.o)
 .debug_pubnames
                0x00007dab      0x14a code\libs\clk_ac46.a(clock_app.o)
 .debug_pubnames
                0x00007ef5       0xf8 code\libs\clk_ac46.a(pll_moudle.o)
 .debug_pubnames
                0x00007fed       0xda code\libs\lib_flac_decode.a(mtst_flac.o)
 .debug_pubnames
                0x000080c7      0x19f code\libs\lib_flac_decode.a(flacdec.o)
 .debug_pubnames
                0x00008266      0x1ea code\libs\lib_encode.a(encode.o)
 .debug_pubnames
                0x00008450       0x81 code\libs\lib_encode.a(dev_write_api.o)
 .debug_pubnames
                0x000084d1       0x1d C:\JL\dv10\lib\libc.a(lib_a-memcmp.o)
 .debug_pubnames
                0x000084ee       0x1d C:\JL\dv10\lib\libc.a(lib_a-memcpy.o)
 .debug_pubnames
                0x0000850b       0x1e C:\JL\dv10\lib\libc.a(lib_a-memmove.o)
 .debug_pubnames
                0x00008529       0x1d C:\JL\dv10\lib\libc.a(lib_a-memset.o)
 .debug_pubnames
                0x00008546       0x25 C:\JL\dv10\lib\libc.a(lib_a-rand.o)
 .debug_pubnames
                0x0000856b       0x1d C:\JL\dv10\lib\libc.a(lib_a-strcmp.o)
 .debug_pubnames
                0x00008588       0x1d C:\JL\dv10\lib\libc.a(lib_a-strcpy.o)
 .debug_pubnames
                0x000085a5       0x1d C:\JL\dv10\lib\libc.a(lib_a-strlen.o)
 .debug_pubnames
                0x000085c2       0x1d C:\JL\dv10\lib\libc.a(lib_a-strstr.o)
 .debug_pubnames
                0x000085df       0x39 C:\JL\dv10\lib\libc.a(lib_a-impure.o)
 .debug_pubnames
                0x00008618       0x1d C:\JL\dv10\lib\libc.a(lib_a-memchr.o)
 .debug_pubnames
                0x00008635       0x1d C:\JL\dv10\lib\libc.a(lib_a-strchr.o)
 .debug_pubnames
                0x00008652       0x20 C:\JL\dv10\lib\libgcc.a(_lshrdi3.o)
 .debug_pubnames
                0x00008672       0x20 C:\JL\dv10\lib\libgcc.a(_ashldi3.o)
 .debug_pubnames
                0x00008692       0x1f C:\JL\dv10\lib\libgcc.a(_divdi3.o)
 .debug_pubnames
                0x000086b1       0x20 C:\JL\dv10\lib\libgcc.a(_udivdi3.o)
 .debug_pubnames
                0x000086d1       0x20 C:\JL\dv10\lib\libgcc.a(_umoddi3.o)
 .debug_pubnames
                0x000086f1       0x1f C:\JL\dv10\lib\libgcc.a(divsf3.o)
 .debug_pubnames
                0x00008710       0x1f C:\JL\dv10\lib\libgcc.a(subsf3.o)
 .debug_pubnames
                0x0000872f       0x20 C:\JL\dv10\lib\libgcc.a(fixsfsi.o)
 .debug_pubnames
                0x0000874f       0x22 C:\JL\dv10\lib\libgcc.a(floatsisf.o)
 .debug_pubnames
                0x00008771       0x20 C:\JL\dv10\lib\libgcc.a(_clz.o)
 .debug_pubnames
                0x00008791       0x1f C:\JL\dv10\lib\libgcc.a(_clzsi2.o)

.debug_pubtypes
                0x00000000    0x10b84
 .debug_pubtypes
                0x00000000       0x51 obj\Debug\\code\apps\bt\aec\aec_api.o
 .debug_pubtypes
                0x00000051       0x71 obj\Debug\\code\apps\bt\btstack\bt_configs_user.o
 .debug_pubtypes
                0x000000c2      0x429 obj\Debug\\code\apps\bt\btstack\bt_key_deal.o
 .debug_pubtypes
                0x000004eb       0x45 obj\Debug\\code\apps\bt\btstack\bt_key_msg.o
 .debug_pubtypes
                0x00000530       0x68 obj\Debug\\code\apps\bt\btstack\fcc_test.o
 .debug_pubtypes
                0x00000598      0x3e8 obj\Debug\\code\apps\fm\fm_api.o
 .debug_pubtypes
                0x00000980       0x45 obj\Debug\\code\apps\fm\fm_key.o
 .debug_pubtypes
                0x000009c5       0x4e obj\Debug\\code\apps\fm\fm_prompt.o
 .debug_pubtypes
                0x00000a13      0x412 obj\Debug\\code\apps\fm\fm_radio.o
 .debug_pubtypes
                0x00000e25       0x7f obj\Debug\\code\apps\idle\idle.o
 .debug_pubtypes
                0x00000ea4       0x45 obj\Debug\\code\apps\idle\idle_key.o
 .debug_pubtypes
                0x00000ee9       0x9b obj\Debug\\code\apps\linein\dev_linein.o
 .debug_pubtypes
                0x00000f84      0x3cb obj\Debug\\code\apps\linein\linein.o
 .debug_pubtypes
                0x0000134f       0x45 obj\Debug\\code\apps\linein\linein_key.o
 .debug_pubtypes
                0x00001394       0x4e obj\Debug\\code\apps\linein\linein_prompt.o
 .debug_pubtypes
                0x000013e2      0x25d obj\Debug\\code\apps\main\main.o
 .debug_pubtypes
                0x0000163f       0x45 obj\Debug\\code\apps\main\main_key.o
 .debug_pubtypes
                0x00001684       0x84 obj\Debug\\code\apps\main\vm_api.o
 .debug_pubtypes
                0x00001708      0x125 obj\Debug\\code\apps\music\ef_api.o
 .debug_pubtypes
                0x0000182d      0x5e7 obj\Debug\\code\apps\music\music.o
 .debug_pubtypes
                0x00001e14      0x392 obj\Debug\\code\apps\music\music_info.o
 .debug_pubtypes
                0x000021a6       0x45 obj\Debug\\code\apps\music\music_key.o
 .debug_pubtypes
                0x000021eb      0x36a obj\Debug\\code\apps\music\music_prompt.o
 .debug_pubtypes
                0x00002555      0x3f8 obj\Debug\\code\apps\music\play_sel.o
 .debug_pubtypes
                0x0000294d       0x45 obj\Debug\\code\apps\record\rec_key.o
 .debug_pubtypes
                0x00002992      0x397 obj\Debug\\code\apps\record\record.o
 .debug_pubtypes
                0x00002d29       0x68 obj\Debug\\code\apps\rtc\irtc.o
 .debug_pubtypes
                0x00002d91       0x68 obj\Debug\\code\apps\rtc\rtc.o
 .debug_pubtypes
                0x00002df9       0x3e obj\Debug\\code\apps\rtc\rtc_key.o
 .debug_pubtypes
                0x00002e37       0x68 obj\Debug\\code\apps\rtc\rtc_low_power.o
 .debug_pubtypes
                0x00002e9f       0x4e obj\Debug\\code\apps\rtc\rtc_prompt.o
 .debug_pubtypes
                0x00002eed       0x68 obj\Debug\\code\apps\rtc\rtc_setting.o
 .debug_pubtypes
                0x00002f55      0x390 obj\Debug\\code\apps\usb_device\dev_pc.o
 .debug_pubtypes
                0x000032e5       0x4e obj\Debug\\code\apps\usb_device\pc_prompt.o
 .debug_pubtypes
                0x00003333      0x378 obj\Debug\\code\apps\usb_device\usb_device.o
 .debug_pubtypes
                0x000036ab       0x45 obj\Debug\\code\apps\usb_device\usb_key.o
 .debug_pubtypes
                0x000036f0       0x21 obj\Debug\\code\common\ASCII_lib.o
 .debug_pubtypes
                0x00003711       0x40 obj\Debug\\code\common\common.o
 .debug_pubtypes
                0x00003751      0x146 obj\Debug\\code\common\dev_manage\dev_ctl.o
 .debug_pubtypes
                0x00003897      0x1dc obj\Debug\\code\common\file_operate\file_operate.o
 .debug_pubtypes
                0x00003a73       0xb3 obj\Debug\\code\common\os_api\os_api.o
 .debug_pubtypes
                0x00003b26      0x212 obj\Debug\\code\common\os_api\task_manage.o
 .debug_pubtypes
                0x00003d38       0x64 obj\Debug\\code\common\printf-stdarg.o
 .debug_pubtypes
                0x00003d9c      0x282 obj\Debug\\code\common\ui\led7_drv.o
 .debug_pubtypes
                0x0000401e       0x65 obj\Debug\\code\common\ui\led_ui_api.o
 .debug_pubtypes
                0x00004083       0x4d obj\Debug\\code\common\ui\ui_common.o
 .debug_pubtypes
                0x000040d0       0xa2 obj\Debug\\code\common\voice_prompt\voice_prompt.o
 .debug_pubtypes
                0x00004172       0xba obj\Debug\\code\cpu\ac46\board\board_bt15_v0.o
 .debug_pubtypes
                0x0000422c       0x3e obj\Debug\\code\cpu\ac46\driver\M62429.o
 .debug_pubtypes
                0x0000426a       0x95 obj\Debug\\code\cpu\ac46\driver\clock.o
 .debug_pubtypes
                0x000042ff      0x165 obj\Debug\\code\cpu\ac46\driver\dac.o
 .debug_pubtypes
                0x00004464       0x3e obj\Debug\\code\cpu\ac46\driver\encoder.o
 .debug_pubtypes
                0x000044a2       0x3e obj\Debug\\code\cpu\ac46\driver\interrupt_isr.o
 .debug_pubtypes
                0x000044e0       0x4d obj\Debug\\code\cpu\ac46\driver\key.o
 .debug_pubtypes
                0x0000452d       0x55 obj\Debug\\code\cpu\ac46\driver\key_drv_ad.o
 .debug_pubtypes
                0x00004582       0x3e obj\Debug\\code\cpu\ac46\driver\key_drv_io.o
 .debug_pubtypes
                0x000045c0       0x6e obj\Debug\\code\cpu\ac46\driver\key_drv_ir.o
 .debug_pubtypes
                0x0000462e       0x3e obj\Debug\\code\cpu\ac46\driver\key_drv_tch.o
 .debug_pubtypes
                0x0000466c       0x7c obj\Debug\\code\cpu\ac46\driver\key_voice.o
 .debug_pubtypes
                0x000046e8       0x3e obj\Debug\\code\cpu\ac46\driver\kok_detect.o
 .debug_pubtypes
                0x00004726       0xe5 obj\Debug\\code\cpu\ac46\driver\ladc.o
 .debug_pubtypes
                0x0000480b       0x4e obj\Debug\\code\cpu\ac46\driver\led.o
 .debug_pubtypes
                0x00004859       0x4d obj\Debug\\code\cpu\ac46\driver\low_power.o
 .debug_pubtypes
                0x000048a6       0x3e obj\Debug\\code\cpu\ac46\driver\pt2313.o
 .debug_pubtypes
                0x000048e4       0xa0 obj\Debug\\code\cpu\ac46\driver\sys_detect.o
 .debug_pubtypes
                0x00004984      0x1a0 obj\Debug\\code\cpu\ac46\driver\timer.o
 .debug_pubtypes
                0x00004b24       0x9e obj\Debug\\code\cpu\ac46\driver\uart.o
 .debug_pubtypes
                0x00004bc2      0x42a code\libs\dec_lib_ac46.a(music_api.o)
 .debug_pubtypes
                0x00004fec       0x90 code\libs\dec_lib_ac46.a(sup_dec_op.o)
 .debug_pubtypes
                0x0000507c      0x1f9 code\libs\dec_lib_ac46.a(decoder_phy.o)
 .debug_pubtypes
                0x00005275       0x70 code\libs\lib_dac.a(dac_init.o)
 .debug_pubtypes
                0x000052e5       0xf7 code\libs\lib_dac.a(dac_channel.o)
 .debug_pubtypes
                0x000053dc       0x3e code\libs\sys_cfg_ac46.a(pll.o)
 .debug_pubtypes
                0x0000541a       0x89 code\libs\sys_cfg_ac46.a(system_cfg_file.o)
 .debug_pubtypes
                0x000054a3       0x4d code\libs\sys_cfg_ac46.a(hwi.o)
 .debug_pubtypes
                0x000054f0       0x56 code\libs\sys_cfg_ac46.a(irq.o)
 .debug_pubtypes
                0x00005546       0x62 code\libs\sys_cfg_ac46.a(system_cfg.o)
 .debug_pubtypes
                0x000055a8      0x134 code\libs\aec_ac46.a(aec.o)
 .debug_pubtypes
                0x000056dc       0x45 code\libs\aec_ac46.a(aec_tst_sd.o)
 .debug_pubtypes
                0x00005721       0x4d code\libs\aec_ac46.a(cdn3_btsyn.o)
 .debug_pubtypes
                0x0000576e       0x1e code\libs\aec_ac46.a(AGC.o)
 .debug_pubtypes
                0x0000578c       0x1e code\libs\libDAGC.a(DAGC.o)
 .debug_pubtypes
                0x000057aa       0x1e code\libs\libDAGC.a(AGC.o)
 .debug_pubtypes
                0x000057c8       0xd4 code\libs\lib_wav_decode.a(testwav.o)
 .debug_pubtypes
                0x0000589c       0xa6 code\libs\lib_wav_decode.a(wavdec_api.o)
 .debug_pubtypes
                0x00005942       0xc6 code\libs\lib_wav_decode.a(ima_adpcm.o)
 .debug_pubtypes
                0x00005a08       0xd4 code\libs\lib_wav_decode.a(msadpcmdec.o)
 .debug_pubtypes
                0x00005adc      0x1da code\libs\ef_api_ac46.a(audio_ef.o)
 .debug_pubtypes
                0x00005cb6      0x165 code\libs\dev_mg_lib.a(drv_manage.o)
 .debug_pubtypes
                0x00005e1b       0xea code\libs\dev_mg_lib.a(mango_dev_cache.o)
 .debug_pubtypes
                0x00005f05       0xb0 code\libs\dev_mg_lib.a(mbr.o)
 .debug_pubtypes
                0x00005fb5      0x1d0 code\libs\dev_mg_lib.a(dev_updata_mode.o)
 .debug_pubtypes
                0x00006185      0x1af code\libs\dev_mg_lib.a(dev_operate.o)
 .debug_pubtypes
                0x00006334      0x156 code\libs\dev_mg_lib.a(fat_io.o)
 .debug_pubtypes
                0x0000648a      0x1cb code\libs\dev_mg_lib.a(fs_io.o)
 .debug_pubtypes
                0x00006655      0x171 code\libs\dev_mg_lib.a(logic_dev_list.o)
 .debug_pubtypes
                0x000067c6       0xef code\libs\dev_mg_lib.a(syd_io.o)
 .debug_pubtypes
                0x000068b5      0x22e code\libs\dev_mg_lib.a(vfs.o)
 .debug_pubtypes
                0x00006ae3      0x114 code\libs\libtff.a(ff_api.o)
 .debug_pubtypes
                0x00006bf7      0x14e code\libs\libtff.a(tff.o)
 .debug_pubtypes
                0x00006d45      0x16d code\libs\sd.a(mango_dev_sd.o)
 .debug_pubtypes
                0x00006eb2      0x13a code\libs\sd.a(sd_controller_interface.o)
 .debug_pubtypes
                0x00006fec      0x100 code\libs\sd.a(sd_global_var.o)
 .debug_pubtypes
                0x000070ec      0x108 code\libs\sd.a(sd_host_read.o)
 .debug_pubtypes
                0x000071f4      0x108 code\libs\sd.a(sd_host_read_end.o)
 .debug_pubtypes
                0x000072fc      0x108 code\libs\sd.a(sd_host_unmount.o)
 .debug_pubtypes
                0x00007404      0x108 code\libs\sd.a(sd_host_write.o)
 .debug_pubtypes
                0x0000750c      0x108 code\libs\sd.a(sd_host_write_end.o)
 .debug_pubtypes
                0x00007614      0x12c code\libs\sd.a(sdmmc_init.o)
 .debug_pubtypes
                0x00007740      0x108 code\libs\sd.a(suspend_sdmmc.o)
 .debug_pubtypes
                0x00007848      0x100 code\libs\sd.a(sd_host_send_csd.o)
 .debug_pubtypes
                0x00007948      0x100 code\libs\sd.a(sd_host_stop_trans.o)
 .debug_pubtypes
                0x00007a48      0x124 code\libs\sd.a(sd_host_hw.o)
 .debug_pubtypes
                0x00007b6c      0x100 code\libs\sd.a(sd_wait_idle.o)
 .debug_pubtypes
                0x00007c6c      0x100 code\libs\sd.a(sdmmc_det.o)
 .debug_pubtypes
                0x00007d6c      0x124 code\libs\sd.a(sd_host_reg.o)
 .debug_pubtypes
                0x00007e90      0x100 code\libs\sd.a(sd_read_start.o)
 .debug_pubtypes
                0x00007f90       0x29 code\libs\sd.a(sd_send_command.o)
 .debug_pubtypes
                0x00007fb9      0x100 code\libs\sd.a(sd_write_start.o)
 .debug_pubtypes
                0x000080b9      0x10e code\libs\sd.a(sd_host_status.o)
 .debug_pubtypes
                0x000081c7      0x100 code\libs\sd.a(sd_host_init.o)
 .debug_pubtypes
                0x000082c7      0x100 code\libs\sd.a(sd_host_mount.o)
 .debug_pubtypes
                0x000083c7      0x100 code\libs\sd.a(sd_host_timeout.o)
 .debug_pubtypes
                0x000084c7      0x100 code\libs\sd.a(sd_init.o)
 .debug_pubtypes
                0x000085c7      0x108 code\libs\sd.a(sdmmc_host_set_bus_width.o)
 .debug_pubtypes
                0x000086cf      0x108 code\libs\sd.a(sdmmc_host_set_hispeed.o)
 .debug_pubtypes
                0x000087d7      0x100 code\libs\sd.a(mmc_host_send_rca.o)
 .debug_pubtypes
                0x000088d7      0x100 code\libs\sd.a(mmc_host_set_bus_width.o)
 .debug_pubtypes
                0x000089d7      0x100 code\libs\sd.a(mmc_host_set_hispeed.o)
 .debug_pubtypes
                0x00008ad7       0x19 code\libs\sd.a(sd_host_all_send_cid.o)
 .debug_pubtypes
                0x00008af0       0x19 code\libs\sd.a(sd_host_reset.o)
 .debug_pubtypes
                0x00008b09      0x100 code\libs\sd.a(sd_host_sd_status.o)
 .debug_pubtypes
                0x00008c09       0x19 code\libs\sd.a(sd_host_send_if_cond.o)
 .debug_pubtypes
                0x00008c22      0x100 code\libs\sd.a(sd_host_send_rca.o)
 .debug_pubtypes
                0x00008d22      0x100 code\libs\sd.a(sd_host_set_bus_width.o)
 .debug_pubtypes
                0x00008e22      0x100 code\libs\sd.a(sd_host_set_hispeed.o)
 .debug_pubtypes
                0x00008f22      0x100 code\libs\sd.a(sd_host_switch_func.o)
 .debug_pubtypes
                0x00009022      0x100 code\libs\sd.a(sd_select_card.o)
 .debug_pubtypes
                0x00009122      0x100 code\libs\sd.a(sd_send_scr.o)
 .debug_pubtypes
                0x00009222      0x100 code\libs\sd.a(sd_chk_ctl.o)
 .debug_pubtypes
                0x00009322      0x100 code\libs\sd.a(sd_host_identification.o)
 .debug_pubtypes
                0x00009422       0x19 code\libs\sd.a(mmc_host_send_op_cond.o)
 .debug_pubtypes
                0x0000943b      0x100 code\libs\sd.a(sd_host_app_cmd.o)
 .debug_pubtypes
                0x0000953b      0x100 code\libs\sd.a(sd_host_send_op_cond.o)
 .debug_pubtypes
                0x0000963b      0x37e code\libs\usb.a(mango_dev_usb_slave.o)
 .debug_pubtypes
                0x000099b9      0x2f0 code\libs\usb.a(usb_device_mount.o)
 .debug_pubtypes
                0x00009ca9       0x3e code\libs\usb.a(usb_device_unmount.o)
 .debug_pubtypes
                0x00009ce7      0x1bc code\libs\usb.a(usb_slave_mic_adc.o)
 .debug_pubtypes
                0x00009ea3      0x1d8 code\libs\usb.a(usb_slave_spk_dac.o)
 .debug_pubtypes
                0x0000a07b      0x1b4 code\libs\usb.a(usbs_ctl_isr.o)
 .debug_pubtypes
                0x0000a22f      0x1b4 code\libs\usb.a(usb_class_setting_libs.o)
 .debug_pubtypes
                0x0000a3e3      0x1b4 code\libs\usb.a(usb_device_io.o)
 .debug_pubtypes
                0x0000a597      0x1b4 code\libs\usb.a(usb_hid_key.o)
 .debug_pubtypes
                0x0000a74b      0x265 code\libs\usb.a(usb_slave_ctl.o)
 .debug_pubtypes
                0x0000a9b0      0x325 code\libs\usb.a(usb_slave_scsi_libs.o)
 .debug_pubtypes
                0x0000acd5      0x30b code\libs\usb.a(usb_slave_sd.o)
 .debug_pubtypes
                0x0000afe0       0x9b code\libs\usb.a(usb_device_status.o)
 .debug_pubtypes
                0x0000b07b       0x3e code\libs\usb.a(usb_slave_online.o)
 .debug_pubtypes
                0x0000b0b9      0x24c code\libs\usb.a(mango_dev_usb.o)
 .debug_pubtypes
                0x0000b305      0x3fe code\libs\usb.a(usb_global_var.o)
 .debug_pubtypes
                0x0000b703      0x19f code\libs\usb.a(usb_host_mount.o)
 .debug_pubtypes
                0x0000b8a2      0x1af code\libs\usb.a(usb_host_read.o)
 .debug_pubtypes
                0x0000ba51      0x19f code\libs\usb.a(usb_host_unmount.o)
 .debug_pubtypes
                0x0000bbf0      0x197 code\libs\usb.a(usb_host_write.o)
 .debug_pubtypes
                0x0000bd87      0x21a code\libs\usb.a(usb_read_remain.o)
 .debug_pubtypes
                0x0000bfa1      0x197 code\libs\usb.a(usb_suspend.o)
 .debug_pubtypes
                0x0000c138      0x197 code\libs\usb.a(USB_Host_dev_enum_libs.o)
 .debug_pubtypes
                0x0000c2cf      0x197 code\libs\usb.a(usb_control_transfers.o)
 .debug_pubtypes
                0x0000c466      0x21a code\libs\usb.a(usb_ctlXfer.o)
 .debug_pubtypes
                0x0000c680      0x1a0 code\libs\usb.a(usb_descriptor_parser.o)
 .debug_pubtypes
                0x0000c820      0x197 code\libs\usb.a(usb_bulk_only_receive.o)
 .debug_pubtypes
                0x0000c9b7      0x21a code\libs\usb.a(usb_bulk_only_transfer.o)
 .debug_pubtypes
                0x0000cbd1      0x21a code\libs\usb.a(usb_ufi_read10.o)
 .debug_pubtypes
                0x0000cdeb      0x21a code\libs\usb.a(usb_ufi_write10.o)
 .debug_pubtypes
                0x0000d005      0x26c code\libs\usb.a(usbh_msd_enum.o)
 .debug_pubtypes
                0x0000d271      0x197 code\libs\usb.a(usbh_msd_parser.o)
 .debug_pubtypes
                0x0000d408       0xfe code\libs\usb.a(usb_host_reg_libs.o)
 .debug_pubtypes
                0x0000d506       0x45 code\libs\usb.a(usb_reg.o)
 .debug_pubtypes
                0x0000d54b      0x1ed code\libs\usb.a(usb_host_status.o)
 .debug_pubtypes
                0x0000d738       0x9b code\libs\usb.a(usb_online.o)
 .debug_pubtypes
                0x0000d7d3       0x21 code\libs\usb.a(Descriptor.o)
 .debug_pubtypes
                0x0000d7f4      0x1b4 code\libs\usb.a(set_descriptor_libs.o)
 .debug_pubtypes
                0x0000d9a8      0x197 code\libs\usb.a(usb_host_timeout.o)
 .debug_pubtypes
                0x0000db3f      0x1a0 code\libs\usb.a(get_max_LUN.o)
 .debug_pubtypes
                0x0000dcdf      0x197 code\libs\usb.a(usb_host_clear_feature.o)
 .debug_pubtypes
                0x0000de76      0x21a code\libs\usb.a(CBW_init.o)
 .debug_pubtypes
                0x0000e090      0x197 code\libs\usb.a(usb_bulk_only_send.o)
 .debug_pubtypes
                0x0000e227      0x249 code\libs\usb.a(usb_host_scsi_cmd_libs.o)
 .debug_pubtypes
                0x0000e470       0xd4 code\libs\librtos_bt15.a(os_core.o)
 .debug_pubtypes
                0x0000e544       0xcc code\libs\librtos_bt15.a(os_mutex.o)
 .debug_pubtypes
                0x0000e610       0xac code\libs\librtos_bt15.a(os_sem.o)
 .debug_pubtypes
                0x0000e6bc      0x113 code\libs\librtos_bt15.a(os_task.o)
 .debug_pubtypes
                0x0000e7cf       0xb4 code\libs\librtos_bt15.a(os_time.o)
 .debug_pubtypes
                0x0000e883       0xb4 code\libs\librtos_bt15.a(os_cpu_c.o)
 .debug_pubtypes
                0x0000e937      0x1e9 code\libs\lib_cache_vm_bt15.a(vm.o)
 .debug_pubtypes
                0x0000eb20       0xdc code\libs\sydf_ac46.a(syd_file.o)
 .debug_pubtypes
                0x0000ebfc      0x21e code\libs\lib_aac_decode.a(aac_main.o)
 .debug_pubtypes
                0x0000ee1a       0x42 code\libs\lib_aac_decode.a(common.o)
 .debug_pubtypes
                0x0000ee5c      0x1c1 code\libs\lib_aac_decode.a(decoder.o)
 .debug_pubtypes
                0x0000f01d      0x1c8 code\libs\lib_aac_decode.a(filtbank.o)
 .debug_pubtypes
                0x0000f1e5      0x1c8 code\libs\lib_aac_decode.a(mdct.o)
 .debug_pubtypes
                0x0000f3ad       0xea code\libs\lib_aac_decode.a(output.o)
 .debug_pubtypes
                0x0000f497      0x1cc code\libs\lib_aac_decode.a(syntax.o)
 .debug_pubtypes
                0x0000f663       0x44 code\libs\lib_aac_decode.a(bits.o)
 .debug_pubtypes
                0x0000f6a7       0x5c code\libs\lib_aac_decode.a(cfft.o)
 .debug_pubtypes
                0x0000f703       0xb0 code\libs\lib_aac_decode.a(huffman.o)
 .debug_pubtypes
                0x0000f7b3       0x61 code\libs\lib_aac_decode.a(pulse.o)
 .debug_pubtypes
                0x0000f814      0x1c8 code\libs\lib_aac_decode.a(specrec.o)
 .debug_pubtypes
                0x0000f9dc       0x83 code\libs\lib_aac_decode.a(tns.o)
 .debug_pubtypes
                0x0000fa5f       0x83 code\libs\lib_aac_decode.a(is.o)
 .debug_pubtypes
                0x0000fae2       0x78 code\libs\lib_aac_decode.a(ms.o)
 .debug_pubtypes
                0x0000fb5a       0x2e code\libs\clk_ac46.a(clock_api.o)
 .debug_pubtypes
                0x0000fb88       0x34 code\libs\clk_ac46.a(clock_moudle.o)
 .debug_pubtypes
                0x0000fbbc       0x68 code\libs\clk_ac46.a(clock_app.o)
 .debug_pubtypes
                0x0000fc24       0x5e code\libs\clk_ac46.a(pll_moudle.o)
 .debug_pubtypes
                0x0000fc82      0x168 code\libs\lib_flac_decode.a(mtst_flac.o)
 .debug_pubtypes
                0x0000fdea      0x155 code\libs\lib_flac_decode.a(flacdec.o)
 .debug_pubtypes
                0x0000ff3f      0x354 code\libs\lib_encode.a(encode.o)
 .debug_pubtypes
                0x00010293      0x30e code\libs\lib_encode.a(dev_write_api.o)
 .debug_pubtypes
                0x000105a1       0x1d C:\JL\dv10\lib\libc.a(lib_a-memcmp.o)
 .debug_pubtypes
                0x000105be       0x1d C:\JL\dv10\lib\libc.a(lib_a-memcpy.o)
 .debug_pubtypes
                0x000105db       0x1d C:\JL\dv10\lib\libc.a(lib_a-memmove.o)
 .debug_pubtypes
                0x000105f8       0x1d C:\JL\dv10\lib\libc.a(lib_a-memset.o)
 .debug_pubtypes
                0x00010615       0xdd C:\JL\dv10\lib\libc.a(lib_a-rand.o)
 .debug_pubtypes
                0x000106f2       0x12 C:\JL\dv10\lib\libc.a(lib_a-strcmp.o)
 .debug_pubtypes
                0x00010704       0x12 C:\JL\dv10\lib\libc.a(lib_a-strcpy.o)
 .debug_pubtypes
                0x00010716       0x1d C:\JL\dv10\lib\libc.a(lib_a-strlen.o)
 .debug_pubtypes
                0x00010733       0x1d C:\JL\dv10\lib\libc.a(lib_a-strstr.o)
 .debug_pubtypes
                0x00010750       0xdd C:\JL\dv10\lib\libc.a(lib_a-impure.o)
 .debug_pubtypes
                0x0001082d       0x1d C:\JL\dv10\lib\libc.a(lib_a-memchr.o)
 .debug_pubtypes
                0x0001084a       0x12 C:\JL\dv10\lib\libc.a(lib_a-strchr.o)
 .debug_pubtypes
                0x0001085c       0x62 C:\JL\dv10\lib\libgcc.a(_lshrdi3.o)
 .debug_pubtypes
                0x000108be       0x62 C:\JL\dv10\lib\libgcc.a(_ashldi3.o)
 .debug_pubtypes
                0x00010920       0x65 C:\JL\dv10\lib\libgcc.a(_divdi3.o)
 .debug_pubtypes
                0x00010985       0x65 C:\JL\dv10\lib\libgcc.a(_udivdi3.o)
 .debug_pubtypes
                0x000109ea       0x65 C:\JL\dv10\lib\libgcc.a(_umoddi3.o)
 .debug_pubtypes
                0x00010a4f       0x2d C:\JL\dv10\lib\libgcc.a(divsf3.o)
 .debug_pubtypes
                0x00010a7c       0x2d C:\JL\dv10\lib\libgcc.a(subsf3.o)
 .debug_pubtypes
                0x00010aa9       0x44 C:\JL\dv10\lib\libgcc.a(fixsfsi.o)
 .debug_pubtypes
                0x00010aed       0x44 C:\JL\dv10\lib\libgcc.a(floatsisf.o)
 .debug_pubtypes
                0x00010b31       0x1e C:\JL\dv10\lib\libgcc.a(_clz.o)
 .debug_pubtypes
                0x00010b4f       0x35 C:\JL\dv10\lib\libgcc.a(_clzsi2.o)

.debug_aranges  0x00000000     0x1d28
 .debug_aranges
                0x00000000       0x20 obj\Debug\\code\apps\bt\aec\aec_api.o
 .debug_aranges
                0x00000020       0x20 obj\Debug\\code\apps\bt\btstack\bt_configs_user.o
 .debug_aranges
                0x00000040       0x20 obj\Debug\\code\apps\bt\btstack\bt_key_deal.o
 .debug_aranges
                0x00000060       0x20 obj\Debug\\code\apps\bt\btstack\fcc_test.o
 .debug_aranges
                0x00000080       0x20 obj\Debug\\code\apps\fm\fm_api.o
 .debug_aranges
                0x000000a0       0x20 obj\Debug\\code\apps\fm\fm_prompt.o
 .debug_aranges
                0x000000c0       0x20 obj\Debug\\code\apps\fm\fm_radio.o
 .debug_aranges
                0x000000e0       0x20 obj\Debug\\code\apps\idle\idle.o
 .debug_aranges
                0x00000100       0x20 obj\Debug\\code\apps\linein\dev_linein.o
 .debug_aranges
                0x00000120       0x20 obj\Debug\\code\apps\linein\linein.o
 .debug_aranges
                0x00000140       0x20 obj\Debug\\code\apps\linein\linein_prompt.o
 .debug_aranges
                0x00000160       0x20 obj\Debug\\code\apps\main\main.o
 .debug_aranges
                0x00000180       0x20 obj\Debug\\code\apps\main\vm_api.o
 .debug_aranges
                0x000001a0       0x20 obj\Debug\\code\apps\music\ef_api.o
 .debug_aranges
                0x000001c0       0x20 obj\Debug\\code\apps\music\music.o
 .debug_aranges
                0x000001e0       0x20 obj\Debug\\code\apps\music\music_info.o
 .debug_aranges
                0x00000200       0x20 obj\Debug\\code\apps\music\music_prompt.o
 .debug_aranges
                0x00000220       0x20 obj\Debug\\code\apps\music\play_sel.o
 .debug_aranges
                0x00000240       0x20 obj\Debug\\code\apps\record\record.o
 .debug_aranges
                0x00000260       0x20 obj\Debug\\code\apps\rtc\rtc_prompt.o
 .debug_aranges
                0x00000280       0x20 obj\Debug\\code\apps\usb_device\dev_pc.o
 .debug_aranges
                0x000002a0       0x20 obj\Debug\\code\apps\usb_device\pc_prompt.o
 .debug_aranges
                0x000002c0       0x20 obj\Debug\\code\apps\usb_device\usb_device.o
 .debug_aranges
                0x000002e0       0x20 obj\Debug\\code\common\ASCII_lib.o
 .debug_aranges
                0x00000300       0x20 obj\Debug\\code\common\common.o
 .debug_aranges
                0x00000320       0x20 obj\Debug\\code\common\dev_manage\dev_ctl.o
 .debug_aranges
                0x00000340       0x20 obj\Debug\\code\common\file_operate\file_operate.o
 .debug_aranges
                0x00000360       0x20 obj\Debug\\code\common\os_api\os_api.o
 .debug_aranges
                0x00000380       0x20 obj\Debug\\code\common\os_api\task_manage.o
 .debug_aranges
                0x000003a0       0x20 obj\Debug\\code\common\printf-stdarg.o
 .debug_aranges
                0x000003c0       0x20 obj\Debug\\code\common\ui\led7_drv.o
 .debug_aranges
                0x000003e0       0x20 obj\Debug\\code\common\ui\led_ui_api.o
 .debug_aranges
                0x00000400       0x20 obj\Debug\\code\common\ui\ui_common.o
 .debug_aranges
                0x00000420       0x20 obj\Debug\\code\common\voice_prompt\voice_prompt.o
 .debug_aranges
                0x00000440       0x20 obj\Debug\\code\cpu\ac46\board\board_bt15_v0.o
 .debug_aranges
                0x00000460       0x28 obj\Debug\\code\cpu\ac46\driver\clock.o
 .debug_aranges
                0x00000488       0x20 obj\Debug\\code\cpu\ac46\driver\dac.o
 .debug_aranges
                0x000004a8       0x20 obj\Debug\\code\cpu\ac46\driver\interrupt_isr.o
 .debug_aranges
                0x000004c8       0x20 obj\Debug\\code\cpu\ac46\driver\key.o
 .debug_aranges
                0x000004e8       0x20 obj\Debug\\code\cpu\ac46\driver\key_drv_ad.o
 .debug_aranges
                0x00000508       0x20 obj\Debug\\code\cpu\ac46\driver\key_drv_ir.o
 .debug_aranges
                0x00000528       0x20 obj\Debug\\code\cpu\ac46\driver\key_voice.o
 .debug_aranges
                0x00000548       0x20 obj\Debug\\code\cpu\ac46\driver\ladc.o
 .debug_aranges
                0x00000568       0x20 obj\Debug\\code\cpu\ac46\driver\led.o
 .debug_aranges
                0x00000588       0x20 obj\Debug\\code\cpu\ac46\driver\low_power.o
 .debug_aranges
                0x000005a8       0x20 obj\Debug\\code\cpu\ac46\driver\sys_detect.o
 .debug_aranges
                0x000005c8       0x20 obj\Debug\\code\cpu\ac46\driver\timer.o
 .debug_aranges
                0x000005e8       0x30 obj\Debug\\code\cpu\ac46\driver\uart.o
 .debug_aranges
                0x00000618       0x20 code\libs\dec_lib_ac46.a(music_api.o)
 .debug_aranges
                0x00000638       0x20 code\libs\dec_lib_ac46.a(sup_dec_op.o)
 .debug_aranges
                0x00000658       0x20 code\libs\dec_lib_ac46.a(decoder_phy.o)
 .debug_aranges
                0x00000678       0x20 code\libs\lib_dac.a(dac_init.o)
 .debug_aranges
                0x00000698       0x20 code\libs\lib_dac.a(dac_channel.o)
 .debug_aranges
                0x000006b8       0x20 code\libs\sys_cfg_ac46.a(pll.o)
 .debug_aranges
                0x000006d8       0x28 code\libs\sys_cfg_ac46.a(reg.o)
 .debug_aranges
                0x00000700       0x20 code\libs\sys_cfg_ac46.a(startup.o)
 .debug_aranges
                0x00000720       0x20 code\libs\sys_cfg_ac46.a(system_cfg_file.o)
 .debug_aranges
                0x00000740       0x20 code\libs\sys_cfg_ac46.a(hwi.o)
 .debug_aranges
                0x00000760       0x20 code\libs\sys_cfg_ac46.a(irq.o)
 .debug_aranges
                0x00000780       0x20 code\libs\sys_cfg_ac46.a(system_cfg.o)
 .debug_aranges
                0x000007a0       0x20 code\libs\aec_ac46.a(aec.o)
 .debug_aranges
                0x000007c0       0x20 code\libs\aec_ac46.a(aec_tst_sd.o)
 .debug_aranges
                0x000007e0       0x20 code\libs\aec_ac46.a(cdn3_btsyn.o)
 .debug_aranges
                0x00000800       0x20 code\libs\aec_ac46.a(AGC.o)
 .debug_aranges
                0x00000820       0x20 code\libs\libDAGC.a(DAGC.o)
 .debug_aranges
                0x00000840       0x20 code\libs\libDAGC.a(AGC.o)
 .debug_aranges
                0x00000860       0x20 code\libs\lib_wav_decode.a(testwav.o)
 .debug_aranges
                0x00000880       0x20 code\libs\lib_wav_decode.a(wavdec_api.o)
 .debug_aranges
                0x000008a0       0x20 code\libs\lib_wav_decode.a(ima_adpcm.o)
 .debug_aranges
                0x000008c0       0x20 code\libs\lib_wav_decode.a(msadpcmdec.o)
 .debug_aranges
                0x000008e0       0x20 code\libs\ef_api_ac46.a(audio_ef.o)
 .debug_aranges
                0x00000900       0x20 code\libs\dev_mg_lib.a(drv_manage.o)
 .debug_aranges
                0x00000920       0x20 code\libs\dev_mg_lib.a(mango_dev_cache.o)
 .debug_aranges
                0x00000940       0x20 code\libs\dev_mg_lib.a(mbr.o)
 .debug_aranges
                0x00000960       0x20 code\libs\dev_mg_lib.a(dev_updata_mode.o)
 .debug_aranges
                0x00000980       0x20 code\libs\dev_mg_lib.a(dev_operate.o)
 .debug_aranges
                0x000009a0       0x20 code\libs\dev_mg_lib.a(fat_io.o)
 .debug_aranges
                0x000009c0       0x20 code\libs\dev_mg_lib.a(fs_io.o)
 .debug_aranges
                0x000009e0       0x20 code\libs\dev_mg_lib.a(logic_dev_list.o)
 .debug_aranges
                0x00000a00       0x20 code\libs\dev_mg_lib.a(syd_io.o)
 .debug_aranges
                0x00000a20       0x20 code\libs\dev_mg_lib.a(vfs.o)
 .debug_aranges
                0x00000a40       0x20 code\libs\libtff.a(ff_api.o)
 .debug_aranges
                0x00000a60       0x20 code\libs\libtff.a(tff.o)
 .debug_aranges
                0x00000a80       0x20 code\libs\sd.a(mango_dev_sd.o)
 .debug_aranges
                0x00000aa0       0x20 code\libs\sd.a(sd_controller_interface.o)
 .debug_aranges
                0x00000ac0       0x20 code\libs\sd.a(sd_host_read.o)
 .debug_aranges
                0x00000ae0       0x20 code\libs\sd.a(sd_host_read_end.o)
 .debug_aranges
                0x00000b00       0x20 code\libs\sd.a(sd_host_unmount.o)
 .debug_aranges
                0x00000b20       0x20 code\libs\sd.a(sd_host_write.o)
 .debug_aranges
                0x00000b40       0x20 code\libs\sd.a(sd_host_write_end.o)
 .debug_aranges
                0x00000b60       0x20 code\libs\sd.a(sdmmc_init.o)
 .debug_aranges
                0x00000b80       0x20 code\libs\sd.a(suspend_sdmmc.o)
 .debug_aranges
                0x00000ba0       0x20 code\libs\sd.a(sd_host_send_csd.o)
 .debug_aranges
                0x00000bc0       0x20 code\libs\sd.a(sd_host_stop_trans.o)
 .debug_aranges
                0x00000be0       0x20 code\libs\sd.a(sd_host_hw.o)
 .debug_aranges
                0x00000c00       0x20 code\libs\sd.a(sd_wait_idle.o)
 .debug_aranges
                0x00000c20       0x20 code\libs\sd.a(sdmmc_det.o)
 .debug_aranges
                0x00000c40       0x20 code\libs\sd.a(sd_host_reg.o)
 .debug_aranges
                0x00000c60       0x20 code\libs\sd.a(sd_read_start.o)
 .debug_aranges
                0x00000c80       0x20 code\libs\sd.a(sd_send_command.o)
 .debug_aranges
                0x00000ca0       0x20 code\libs\sd.a(sd_write_start.o)
 .debug_aranges
                0x00000cc0       0x20 code\libs\sd.a(sd_host_status.o)
 .debug_aranges
                0x00000ce0       0x20 code\libs\sd.a(sd_host_init.o)
 .debug_aranges
                0x00000d00       0x20 code\libs\sd.a(sd_host_mount.o)
 .debug_aranges
                0x00000d20       0x20 code\libs\sd.a(sd_host_timeout.o)
 .debug_aranges
                0x00000d40       0x20 code\libs\sd.a(sd_init.o)
 .debug_aranges
                0x00000d60       0x20 code\libs\sd.a(sdmmc_host_set_bus_width.o)
 .debug_aranges
                0x00000d80       0x20 code\libs\sd.a(sdmmc_host_set_hispeed.o)
 .debug_aranges
                0x00000da0       0x20 code\libs\sd.a(mmc_host_send_rca.o)
 .debug_aranges
                0x00000dc0       0x20 code\libs\sd.a(mmc_host_set_bus_width.o)
 .debug_aranges
                0x00000de0       0x20 code\libs\sd.a(mmc_host_set_hispeed.o)
 .debug_aranges
                0x00000e00       0x20 code\libs\sd.a(sd_host_all_send_cid.o)
 .debug_aranges
                0x00000e20       0x20 code\libs\sd.a(sd_host_reset.o)
 .debug_aranges
                0x00000e40       0x20 code\libs\sd.a(sd_host_sd_status.o)
 .debug_aranges
                0x00000e60       0x20 code\libs\sd.a(sd_host_send_if_cond.o)
 .debug_aranges
                0x00000e80       0x20 code\libs\sd.a(sd_host_send_rca.o)
 .debug_aranges
                0x00000ea0       0x20 code\libs\sd.a(sd_host_set_bus_width.o)
 .debug_aranges
                0x00000ec0       0x20 code\libs\sd.a(sd_host_set_hispeed.o)
 .debug_aranges
                0x00000ee0       0x20 code\libs\sd.a(sd_host_switch_func.o)
 .debug_aranges
                0x00000f00       0x20 code\libs\sd.a(sd_select_card.o)
 .debug_aranges
                0x00000f20       0x20 code\libs\sd.a(sd_send_scr.o)
 .debug_aranges
                0x00000f40       0x20 code\libs\sd.a(sd_chk_ctl.o)
 .debug_aranges
                0x00000f60       0x20 code\libs\sd.a(sd_host_identification.o)
 .debug_aranges
                0x00000f80       0x20 code\libs\sd.a(mmc_host_send_op_cond.o)
 .debug_aranges
                0x00000fa0       0x20 code\libs\sd.a(sd_host_app_cmd.o)
 .debug_aranges
                0x00000fc0       0x20 code\libs\sd.a(sd_host_send_op_cond.o)
 .debug_aranges
                0x00000fe0       0x20 code\libs\usb.a(mango_dev_usb_slave.o)
 .debug_aranges
                0x00001000       0x20 code\libs\usb.a(usb_device_mount.o)
 .debug_aranges
                0x00001020       0x20 code\libs\usb.a(usb_device_unmount.o)
 .debug_aranges
                0x00001040       0x20 code\libs\usb.a(usb_slave_mic_adc.o)
 .debug_aranges
                0x00001060       0x20 code\libs\usb.a(usb_slave_spk_dac.o)
 .debug_aranges
                0x00001080       0x20 code\libs\usb.a(usbs_ctl_isr.o)
 .debug_aranges
                0x000010a0       0x20 code\libs\usb.a(usb_class_setting_libs.o)
 .debug_aranges
                0x000010c0       0x20 code\libs\usb.a(usb_device_io.o)
 .debug_aranges
                0x000010e0       0x20 code\libs\usb.a(usb_hid_key.o)
 .debug_aranges
                0x00001100       0x20 code\libs\usb.a(usb_slave_ctl.o)
 .debug_aranges
                0x00001120       0x20 code\libs\usb.a(usb_slave_scsi_libs.o)
 .debug_aranges
                0x00001140       0x20 code\libs\usb.a(usb_slave_sd.o)
 .debug_aranges
                0x00001160       0x20 code\libs\usb.a(usb_device_status.o)
 .debug_aranges
                0x00001180       0x20 code\libs\usb.a(usb_slave_online.o)
 .debug_aranges
                0x000011a0       0x20 code\libs\usb.a(mango_dev_usb.o)
 .debug_aranges
                0x000011c0       0x20 code\libs\usb.a(usb_global_var.o)
 .debug_aranges
                0x000011e0       0x20 code\libs\usb.a(usb_host_mount.o)
 .debug_aranges
                0x00001200       0x20 code\libs\usb.a(usb_host_read.o)
 .debug_aranges
                0x00001220       0x20 code\libs\usb.a(usb_host_unmount.o)
 .debug_aranges
                0x00001240       0x20 code\libs\usb.a(usb_host_write.o)
 .debug_aranges
                0x00001260       0x20 code\libs\usb.a(usb_read_remain.o)
 .debug_aranges
                0x00001280       0x20 code\libs\usb.a(usb_suspend.o)
 .debug_aranges
                0x000012a0       0x20 code\libs\usb.a(USB_Host_dev_enum_libs.o)
 .debug_aranges
                0x000012c0       0x20 code\libs\usb.a(usb_control_transfers.o)
 .debug_aranges
                0x000012e0       0x20 code\libs\usb.a(usb_ctlXfer.o)
 .debug_aranges
                0x00001300       0x20 code\libs\usb.a(usb_descriptor_parser.o)
 .debug_aranges
                0x00001320       0x20 code\libs\usb.a(usb_bulk_only_receive.o)
 .debug_aranges
                0x00001340       0x20 code\libs\usb.a(usb_bulk_only_transfer.o)
 .debug_aranges
                0x00001360       0x20 code\libs\usb.a(usb_ufi_read10.o)
 .debug_aranges
                0x00001380       0x20 code\libs\usb.a(usb_ufi_write10.o)
 .debug_aranges
                0x000013a0       0x20 code\libs\usb.a(usbh_msd_enum.o)
 .debug_aranges
                0x000013c0       0x20 code\libs\usb.a(usbh_msd_parser.o)
 .debug_aranges
                0x000013e0       0x20 code\libs\usb.a(usb_host_reg_libs.o)
 .debug_aranges
                0x00001400       0x20 code\libs\usb.a(usb_reg.o)
 .debug_aranges
                0x00001420       0x20 code\libs\usb.a(usb_host_status.o)
 .debug_aranges
                0x00001440       0x20 code\libs\usb.a(usb_online.o)
 .debug_aranges
                0x00001460       0x20 code\libs\usb.a(set_descriptor_libs.o)
 .debug_aranges
                0x00001480       0x20 code\libs\usb.a(usb_host_timeout.o)
 .debug_aranges
                0x000014a0       0x20 code\libs\usb.a(get_max_LUN.o)
 .debug_aranges
                0x000014c0       0x20 code\libs\usb.a(usb_host_clear_feature.o)
 .debug_aranges
                0x000014e0       0x20 code\libs\usb.a(CBW_init.o)
 .debug_aranges
                0x00001500       0x20 code\libs\usb.a(usb_bulk_only_send.o)
 .debug_aranges
                0x00001520       0x20 code\libs\usb.a(usb_host_scsi_cmd_libs.o)
 .debug_aranges
                0x00001540       0x30 code\libs\librtos_bt15.a(os_core.o)
 .debug_aranges
                0x00001570       0x20 code\libs\librtos_bt15.a(os_mutex.o)
 .debug_aranges
                0x00001590       0x20 code\libs\librtos_bt15.a(os_sem.o)
 .debug_aranges
                0x000015b0       0x20 code\libs\librtos_bt15.a(os_task.o)
 .debug_aranges
                0x000015d0       0x20 code\libs\librtos_bt15.a(os_time.o)
 .debug_aranges
                0x000015f0       0x20 code\libs\librtos_bt15.a(os_cpu.o)
 .debug_aranges
                0x00001610       0x20 code\libs\librtos_bt15.a(os_cpu_c.o)
 .debug_aranges
                0x00001630       0xd0 code\libs\lib_cache_vm_bt15.a(vm.o)
 .debug_aranges
                0x00001700       0x20 code\libs\sydf_ac46.a(syd_file.o)
 .debug_aranges
                0x00001720       0x20 code\libs\lib_aac_decode.a(aac_main.o)
 .debug_aranges
                0x00001740       0x20 code\libs\lib_aac_decode.a(common.o)
 .debug_aranges
                0x00001760       0x20 code\libs\lib_aac_decode.a(decoder.o)
 .debug_aranges
                0x00001780       0x20 code\libs\lib_aac_decode.a(filtbank.o)
 .debug_aranges
                0x000017a0       0x20 code\libs\lib_aac_decode.a(mdct.o)
 .debug_aranges
                0x000017c0       0x20 code\libs\lib_aac_decode.a(output.o)
 .debug_aranges
                0x000017e0       0x20 code\libs\lib_aac_decode.a(syntax.o)
 .debug_aranges
                0x00001800       0x20 code\libs\lib_aac_decode.a(bits.o)
 .debug_aranges
                0x00001820       0x20 code\libs\lib_aac_decode.a(cfft.o)
 .debug_aranges
                0x00001840       0x20 code\libs\lib_aac_decode.a(huffman.o)
 .debug_aranges
                0x00001860       0x20 code\libs\lib_aac_decode.a(pulse.o)
 .debug_aranges
                0x00001880       0x20 code\libs\lib_aac_decode.a(specrec.o)
 .debug_aranges
                0x000018a0       0x20 code\libs\lib_aac_decode.a(tns.o)
 .debug_aranges
                0x000018c0       0x20 code\libs\lib_aac_decode.a(is.o)
 .debug_aranges
                0x000018e0       0x20 code\libs\lib_aac_decode.a(ms.o)
 .debug_aranges
                0x00001900       0x20 code\libs\clk_ac46.a(clock_api.o)
 .debug_aranges
                0x00001920       0x20 code\libs\clk_ac46.a(clock_moudle.o)
 .debug_aranges
                0x00001940       0x28 code\libs\clk_ac46.a(clock_app.o)
 .debug_aranges
                0x00001968       0x20 code\libs\clk_ac46.a(pll_moudle.o)
 .debug_aranges
                0x00001988       0x20 code\libs\lib_flac_decode.a(mtst_flac.o)
 .debug_aranges
                0x000019a8       0x20 code\libs\lib_flac_decode.a(flacdec.o)
 .debug_aranges
                0x000019c8       0x20 code\libs\lib_encode.a(encode.o)
 .debug_aranges
                0x000019e8       0x20 code\libs\lib_encode.a(dev_write_api.o)
 .debug_aranges
                0x00001a08       0x20 C:\JL\dv10\lib\libc.a(lib_a-memcmp.o)
 .debug_aranges
                0x00001a28       0x20 C:\JL\dv10\lib\libc.a(lib_a-memcpy.o)
 .debug_aranges
                0x00001a48       0x20 C:\JL\dv10\lib\libc.a(lib_a-memmove.o)
 .debug_aranges
                0x00001a68       0x20 C:\JL\dv10\lib\libc.a(lib_a-memset.o)
 .debug_aranges
                0x00001a88       0x20 C:\JL\dv10\lib\libc.a(lib_a-rand.o)
 .debug_aranges
                0x00001aa8       0x20 C:\JL\dv10\lib\libc.a(lib_a-strcmp.o)
 .debug_aranges
                0x00001ac8       0x20 C:\JL\dv10\lib\libc.a(lib_a-strcpy.o)
 .debug_aranges
                0x00001ae8       0x20 C:\JL\dv10\lib\libc.a(lib_a-strlen.o)
 .debug_aranges
                0x00001b08       0x20 C:\JL\dv10\lib\libc.a(lib_a-strstr.o)
 .debug_aranges
                0x00001b28       0x20 C:\JL\dv10\lib\libc.a(lib_a-memchr.o)
 .debug_aranges
                0x00001b48       0x20 C:\JL\dv10\lib\libc.a(lib_a-strchr.o)
 .debug_aranges
                0x00001b68       0x20 C:\JL\dv10\lib\libgcc.a(_umodsi3.o)
 .debug_aranges
                0x00001b88       0x20 C:\JL\dv10\lib\libgcc.a(_modsi3.o)
 .debug_aranges
                0x00001ba8       0x20 C:\JL\dv10\lib\libgcc.a(_muldi3.o)
 .debug_aranges
                0x00001bc8       0x20 C:\JL\dv10\lib\libgcc.a(_umulsi3_highpart.o)
 .debug_aranges
                0x00001be8       0x20 C:\JL\dv10\lib\libgcc.a(_lshrdi3.o)
 .debug_aranges
                0x00001c08       0x20 C:\JL\dv10\lib\libgcc.a(_ashldi3.o)
 .debug_aranges
                0x00001c28       0x20 C:\JL\dv10\lib\libgcc.a(_divdi3.o)
 .debug_aranges
                0x00001c48       0x20 C:\JL\dv10\lib\libgcc.a(_udivdi3.o)
 .debug_aranges
                0x00001c68       0x20 C:\JL\dv10\lib\libgcc.a(_umoddi3.o)
 .debug_aranges
                0x00001c88       0x20 C:\JL\dv10\lib\libgcc.a(divsf3.o)
 .debug_aranges
                0x00001ca8       0x20 C:\JL\dv10\lib\libgcc.a(subsf3.o)
 .debug_aranges
                0x00001cc8       0x20 C:\JL\dv10\lib\libgcc.a(fixsfsi.o)
 .debug_aranges
                0x00001ce8       0x20 C:\JL\dv10\lib\libgcc.a(floatsisf.o)
 .debug_aranges
                0x00001d08       0x20 C:\JL\dv10\lib\libgcc.a(_clzsi2.o)

.debug_str      0x00000000    0x111cf
 .debug_str     0x00000000      0x173 obj\Debug\\code\apps\bt\aec\aec_api.o
                                0x1be (size before relaxing)
 .debug_str     0x00000173      0xd5a obj\Debug\\code\apps\bt\btstack\bt_configs_user.o
                                0xf26 (size before relaxing)
 .debug_str     0x00000ecd     0x1ded obj\Debug\\code\apps\bt\btstack\bt_key_deal.o
                               0x2bfb (size before relaxing)
 .debug_str     0x00002cba       0x22 obj\Debug\\code\apps\bt\btstack\bt_key_msg.o
                                0x8d9 (size before relaxing)
 .debug_str     0x00002cdc       0xd8 obj\Debug\\code\apps\bt\btstack\fcc_test.o
                                0x258 (size before relaxing)
 .debug_str     0x00002db4      0x3aa obj\Debug\\code\apps\fm\fm_api.o
                               0x1b45 (size before relaxing)
 .debug_str     0x0000315e       0x2e obj\Debug\\code\apps\fm\fm_key.o
                                0x8cd (size before relaxing)
 .debug_str     0x0000318c       0x3a obj\Debug\\code\apps\fm\fm_prompt.o
                                0x19a (size before relaxing)
 .debug_str     0x000031c6       0xc4 obj\Debug\\code\apps\fm\fm_radio.o
                               0x2326 (size before relaxing)
 .debug_str     0x0000328a       0x9d obj\Debug\\code\apps\idle\idle.o
                               0x14c9 (size before relaxing)
 .debug_str     0x00003327       0x1a obj\Debug\\code\apps\idle\idle_key.o
                                0x8d5 (size before relaxing)
 .debug_str     0x00003341      0x13a obj\Debug\\code\apps\linein\dev_linein.o
                                0x48f (size before relaxing)
 .debug_str     0x0000347b      0x10e obj\Debug\\code\apps\linein\linein.o
                               0x22b5 (size before relaxing)
 .debug_str     0x00003589       0x1e obj\Debug\\code\apps\linein\linein_key.o
                                0x8dd (size before relaxing)
 .debug_str     0x000035a7       0x34 obj\Debug\\code\apps\linein\linein_prompt.o
                                0x1aa (size before relaxing)
 .debug_str     0x000035db      0x560 obj\Debug\\code\apps\main\main.o
                               0x2289 (size before relaxing)
 .debug_str     0x00003b3b       0x1a obj\Debug\\code\apps\main\main_key.o
                                0x8d5 (size before relaxing)
 .debug_str     0x00003b55       0xf2 obj\Debug\\code\apps\main\vm_api.o
                                0x367 (size before relaxing)
 .debug_str     0x00003c47      0x10d obj\Debug\\code\apps\music\ef_api.o
                                0x3d1 (size before relaxing)
 .debug_str     0x00003d54      0xa28 obj\Debug\\code\apps\music\music.o
                               0x2d13 (size before relaxing)
 .debug_str     0x0000477c       0xa3 obj\Debug\\code\apps\music\music_info.o
                                0xad7 (size before relaxing)
 .debug_str     0x0000481f       0x1c obj\Debug\\code\apps\music\music_key.o
                                0x8d9 (size before relaxing)
 .debug_str     0x0000483b       0x63 obj\Debug\\code\apps\music\music_prompt.o
                                0xadd (size before relaxing)
 .debug_str     0x0000489e       0xd7 obj\Debug\\code\apps\music\play_sel.o
                               0x1db8 (size before relaxing)
 .debug_str     0x00004975       0x44 obj\Debug\\code\apps\record\rec_key.o
                                0x8e3 (size before relaxing)
 .debug_str     0x000049b9      0x2a7 obj\Debug\\code\apps\record\record.o
                               0x2176 (size before relaxing)
 .debug_str     0x00004c60       0x5c obj\Debug\\code\apps\rtc\irtc.o
                                0x1b7 (size before relaxing)
 .debug_str     0x00004cbc       0x14 obj\Debug\\code\apps\rtc\rtc.o
                                0x23b (size before relaxing)
 .debug_str     0x00004cd0       0x18 obj\Debug\\code\apps\rtc\rtc_key.o
                                0x16a (size before relaxing)
 .debug_str     0x00004ce8       0x1e obj\Debug\\code\apps\rtc\rtc_low_power.o
                                0x1c0 (size before relaxing)
 .debug_str     0x00004d06       0x3e obj\Debug\\code\apps\rtc\rtc_prompt.o
                                0x19e (size before relaxing)
 .debug_str     0x00004d44       0x1c obj\Debug\\code\apps\rtc\rtc_setting.o
                                0x1be (size before relaxing)
 .debug_str     0x00004d60      0x787 obj\Debug\\code\apps\usb_device\dev_pc.o
                                0xfb5 (size before relaxing)
 .debug_str     0x000054e7       0x42 obj\Debug\\code\apps\usb_device\pc_prompt.o
                                0x1a2 (size before relaxing)
 .debug_str     0x00005529       0xdb obj\Debug\\code\apps\usb_device\usb_device.o
                               0x1d91 (size before relaxing)
 .debug_str     0x00005604       0x1f obj\Debug\\code\apps\usb_device\usb_key.o
                                0x8e7 (size before relaxing)
 .debug_str     0x00005623       0x5c obj\Debug\\code\common\ASCII_lib.o
                                 0xf7 (size before relaxing)
 .debug_str     0x0000567f       0x88 obj\Debug\\code\common\common.o
                                0x150 (size before relaxing)
 .debug_str     0x00005707      0x15b obj\Debug\\code\common\dev_manage\dev_ctl.o
                                0x6d4 (size before relaxing)
 .debug_str     0x00005862      0x1e1 obj\Debug\\code\common\file_operate\file_operate.o
                                0xbab (size before relaxing)
 .debug_str     0x00005a43       0x82 obj\Debug\\code\common\os_api\os_api.o
                                0x1ef (size before relaxing)
 .debug_str     0x00005ac5      0x128 obj\Debug\\code\common\os_api\task_manage.o
                               0x1089 (size before relaxing)
 .debug_str     0x00005bed       0x91 obj\Debug\\code\common\printf-stdarg.o
                                0x69e (size before relaxing)
 .debug_str     0x00005c7e      0x348 obj\Debug\\code\common\ui\led7_drv.o
                               0x1273 (size before relaxing)
 .debug_str     0x00005fc6       0x28 obj\Debug\\code\common\ui\led_ui_api.o
                                0xdc4 (size before relaxing)
 .debug_str     0x00005fee       0x33 obj\Debug\\code\common\ui\ui_common.o
                                0x19b (size before relaxing)
 .debug_str     0x00006021       0x4e obj\Debug\\code\common\voice_prompt\voice_prompt.o
                                0x2dd (size before relaxing)
 .debug_str     0x0000606f      0x2e2 obj\Debug\\code\cpu\ac46\board\board_bt15_v0.o
                                0x65a (size before relaxing)
 .debug_str     0x00006351       0x1e obj\Debug\\code\cpu\ac46\driver\M62429.o
                                0x170 (size before relaxing)
 .debug_str     0x0000636f       0x1d obj\Debug\\code\cpu\ac46\driver\clock.o
                                0x213 (size before relaxing)
 .debug_str     0x0000638c      0x187 obj\Debug\\code\cpu\ac46\driver\dac.o
                                0xb3e (size before relaxing)
 .debug_str     0x00006513       0x1f obj\Debug\\code\cpu\ac46\driver\encoder.o
                                0x171 (size before relaxing)
 .debug_str     0x00006532       0x72 obj\Debug\\code\cpu\ac46\driver\interrupt_isr.o
                                0x1c4 (size before relaxing)
 .debug_str     0x000065a4      0x14b obj\Debug\\code\cpu\ac46\driver\key.o
                                0xa72 (size before relaxing)
 .debug_str     0x000066ef       0x87 obj\Debug\\code\cpu\ac46\driver\key_drv_ad.o
                                0x239 (size before relaxing)
 .debug_str     0x00006776       0x22 obj\Debug\\code\cpu\ac46\driver\key_drv_io.o
                                0x174 (size before relaxing)
 .debug_str     0x00006798       0xdc obj\Debug\\code\cpu\ac46\driver\key_drv_ir.o
                                0x24e (size before relaxing)
 .debug_str     0x00006874       0x23 obj\Debug\\code\cpu\ac46\driver\key_drv_tch.o
                                0x175 (size before relaxing)
 .debug_str     0x00006897       0xaa obj\Debug\\code\cpu\ac46\driver\key_voice.o
                                0x255 (size before relaxing)
 .debug_str     0x00006941       0x22 obj\Debug\\code\cpu\ac46\driver\kok_detect.o
                                0x174 (size before relaxing)
 .debug_str     0x00006963       0x63 obj\Debug\\code\cpu\ac46\driver\ladc.o
                                0x59f (size before relaxing)
 .debug_str     0x000069c6       0xa5 obj\Debug\\code\cpu\ac46\driver\led.o
                                0x281 (size before relaxing)
 .debug_str     0x00006a6b       0xdd obj\Debug\\code\cpu\ac46\driver\low_power.o
                                0x2f0 (size before relaxing)
 .debug_str     0x00006b48       0x1e obj\Debug\\code\cpu\ac46\driver\pt2313.o
                                0x170 (size before relaxing)
 .debug_str     0x00006b66       0x76 obj\Debug\\code\cpu\ac46\driver\sys_detect.o
                                0xbb0 (size before relaxing)
 .debug_str     0x00006bdc       0x9e obj\Debug\\code\cpu\ac46\driver\timer.o
                                0xf46 (size before relaxing)
 .debug_str     0x00006c7a       0xfd obj\Debug\\code\cpu\ac46\driver\uart.o
                                0x75d (size before relaxing)
 .debug_str     0x00006d77      0x235 code\libs\dec_lib_ac46.a(music_api.o)
                                0xdd8 (size before relaxing)
 .debug_str     0x00006fac       0x51 code\libs\dec_lib_ac46.a(sup_dec_op.o)
                                0x1dd (size before relaxing)
 .debug_str     0x00006ffd      0x394 code\libs\dec_lib_ac46.a(decoder_phy.o)
                               0x11ef (size before relaxing)
 .debug_str     0x00007391      0x1a5 code\libs\lib_dac.a(dac_init.o)
                                0x2ab (size before relaxing)
 .debug_str     0x00007536      0x34d code\libs\lib_dac.a(dac_channel.o)
                                0x706 (size before relaxing)
 .debug_str     0x00007883       0x4f code\libs\sys_cfg_ac46.a(pll.o)
                                0x112 (size before relaxing)
 .debug_str     0x000078d2       0xee code\libs\sys_cfg_ac46.a(system_cfg_file.o)
                                0x26c (size before relaxing)
 .debug_str     0x000079c0       0xbd code\libs\sys_cfg_ac46.a(hwi.o)
                                0x1bf (size before relaxing)
 .debug_str     0x00007a7d      0x14c code\libs\sys_cfg_ac46.a(irq.o)
                                0x22f (size before relaxing)
 .debug_str     0x00007bc9       0xdb code\libs\sys_cfg_ac46.a(system_cfg.o)
                                0x238 (size before relaxing)
 .debug_str     0x00007ca4      0x3e9 code\libs\aec_ac46.a(aec.o)
                                0xc56 (size before relaxing)
 .debug_str     0x0000808d       0x8a code\libs\aec_ac46.a(aec_tst_sd.o)
                                0x182 (size before relaxing)
 .debug_str     0x00008117       0x71 code\libs\aec_ac46.a(cdn3_btsyn.o)
                                0x21e (size before relaxing)
 .debug_str     0x00008188       0x4f code\libs\aec_ac46.a(AGC.o)
                                0x1b9 (size before relaxing)
 .debug_str     0x000081d7      0x129 code\libs\libDAGC.a(DAGC.o)
                                0x172 (size before relaxing)
 .debug_str     0x00008300       0xb4 code\libs\libDAGC.a(AGC.o)
                                0x1fa (size before relaxing)
 .debug_str     0x000083b4      0x24f code\libs\lib_wav_decode.a(testwav.o)
                                0x504 (size before relaxing)
 .debug_str     0x00008603       0x53 code\libs\lib_wav_decode.a(wavdec_api.o)
                                0x412 (size before relaxing)
 .debug_str     0x00008656       0x99 code\libs\lib_wav_decode.a(ima_adpcm.o)
                                0x37d (size before relaxing)
 .debug_str     0x000086ef       0xc3 code\libs\lib_wav_decode.a(msadpcmdec.o)
                                0x39d (size before relaxing)
 .debug_str     0x000087b2      0x214 code\libs\ef_api_ac46.a(audio_ef.o)
                                0x5fa (size before relaxing)
 .debug_str     0x000089c6      0x4c4 code\libs\dev_mg_lib.a(drv_manage.o)
                                0xf31 (size before relaxing)
 .debug_str     0x00008e8a      0x100 code\libs\dev_mg_lib.a(mango_dev_cache.o)
                                0x443 (size before relaxing)
 .debug_str     0x00008f8a       0xf1 code\libs\dev_mg_lib.a(mbr.o)
                                0x2a6 (size before relaxing)
 .debug_str     0x0000907b      0x279 code\libs\dev_mg_lib.a(dev_updata_mode.o)
                                0x67c (size before relaxing)
 .debug_str     0x000092f4       0xa2 code\libs\dev_mg_lib.a(dev_operate.o)
                                0x86e (size before relaxing)
 .debug_str     0x00009396      0x1af code\libs\dev_mg_lib.a(fat_io.o)
                                0x6e0 (size before relaxing)
 .debug_str     0x00009545      0x12f code\libs\dev_mg_lib.a(fs_io.o)
                                0x6dd (size before relaxing)
 .debug_str     0x00009674      0x20a code\libs\dev_mg_lib.a(logic_dev_list.o)
                                0xb7d (size before relaxing)
 .debug_str     0x0000987e      0x130 code\libs\dev_mg_lib.a(syd_io.o)
                                0x566 (size before relaxing)
 .debug_str     0x000099ae       0xdb code\libs\dev_mg_lib.a(vfs.o)
                                0x88d (size before relaxing)
 .debug_str     0x00009a89      0x2ae code\libs\libtff.a(ff_api.o)
                                0x764 (size before relaxing)
 .debug_str     0x00009d37      0x2fa code\libs\libtff.a(tff.o)
                                0x896 (size before relaxing)
 .debug_str     0x0000a031      0x2a5 code\libs\sd.a(mango_dev_sd.o)
                                0xbe5 (size before relaxing)
 .debug_str     0x0000a2d6      0x1ba code\libs\sd.a(sd_controller_interface.o)
                                0x6e8 (size before relaxing)
 .debug_str     0x0000a490       0x2f code\libs\sd.a(sd_global_var.o)
                                0x38c (size before relaxing)
 .debug_str     0x0000a4bf      0x258 code\libs\sd.a(sd_host_read.o)
                                0x5d2 (size before relaxing)
 .debug_str     0x0000a717       0x32 code\libs\sd.a(sd_host_read_end.o)
                                0x5be (size before relaxing)
 .debug_str     0x0000a749       0x30 code\libs\sd.a(sd_host_unmount.o)
                                0x5e3 (size before relaxing)
 .debug_str     0x0000a779       0x46 code\libs\sd.a(sd_host_write.o)
                                0x5ce (size before relaxing)
 .debug_str     0x0000a7bf       0x34 code\libs\sd.a(sd_host_write_end.o)
                                0x5c0 (size before relaxing)
 .debug_str     0x0000a7f3       0x5e code\libs\sd.a(sdmmc_init.o)
                                0x671 (size before relaxing)
 .debug_str     0x0000a851       0x2e code\libs\sd.a(suspend_sdmmc.o)
                                0x5c8 (size before relaxing)
 .debug_str     0x0000a87f       0x9c code\libs\sd.a(sd_host_send_csd.o)
                                0x448 (size before relaxing)
 .debug_str     0x0000a91b       0x3b code\libs\sd.a(sd_host_stop_trans.o)
                                0x5b7 (size before relaxing)
 .debug_str     0x0000a956       0x9b code\libs\sd.a(sd_host_hw.o)
                                0x478 (size before relaxing)
 .debug_str     0x0000a9f1       0x2e code\libs\sd.a(sd_wait_idle.o)
                                0x9f9 (size before relaxing)
 .debug_str     0x0000aa1f       0xa2 code\libs\sd.a(sdmmc_det.o)
                                0x45a (size before relaxing)
 .debug_str     0x0000aac1      0x1ab code\libs\sd.a(sd_host_reg.o)
                                0x62b (size before relaxing)
 .debug_str     0x0000ac6c       0x31 code\libs\sd.a(sd_read_start.o)
                                0x384 (size before relaxing)
 .debug_str     0x0000ac9d       0x35 code\libs\sd.a(sd_send_command.o)
                                0x33b (size before relaxing)
 .debug_str     0x0000acd2       0x33 code\libs\sd.a(sd_write_start.o)
                                0x386 (size before relaxing)
 .debug_str     0x0000ad05       0x46 code\libs\sd.a(sd_host_status.o)
                                0x4b5 (size before relaxing)
 .debug_str     0x0000ad4b       0x2f code\libs\sd.a(sd_host_init.o)
                                0x394 (size before relaxing)
 .debug_str     0x0000ad7a       0x35 code\libs\sd.a(sd_host_mount.o)
                                0x57e (size before relaxing)
 .debug_str     0x0000adaf       0x35 code\libs\sd.a(sd_host_timeout.o)
                                0x56d (size before relaxing)
 .debug_str     0x0000ade4       0x33 code\libs\sd.a(sd_init.o)
                                0x5d1 (size before relaxing)
 .debug_str     0x0000ae17       0x3f code\libs\sd.a(sdmmc_host_set_bus_width.o)
                                0x5fc (size before relaxing)
 .debug_str     0x0000ae56       0x43 code\libs\sd.a(sdmmc_host_set_hispeed.o)
                                0x5b6 (size before relaxing)
 .debug_str     0x0000ae99       0x39 code\libs\sd.a(mmc_host_send_rca.o)
                                0x385 (size before relaxing)
 .debug_str     0x0000aed2       0x43 code\libs\sd.a(mmc_host_set_bus_width.o)
                                0x3d3 (size before relaxing)
 .debug_str     0x0000af15       0x3f code\libs\sd.a(mmc_host_set_hispeed.o)
                                0x3cf (size before relaxing)
 .debug_str     0x0000af54       0x3f code\libs\sd.a(sd_host_all_send_cid.o)
                                0x115 (size before relaxing)
 .debug_str     0x0000af93       0x31 code\libs\sd.a(sd_host_reset.o)
                                0x107 (size before relaxing)
 .debug_str     0x0000afc4       0x46 code\libs\sd.a(sd_host_sd_status.o)
                                0x57e (size before relaxing)
 .debug_str     0x0000b00a       0x3f code\libs\sd.a(sd_host_send_if_cond.o)
                                0x115 (size before relaxing)
 .debug_str     0x0000b049       0x37 code\libs\sd.a(sd_host_send_rca.o)
                                0x3c7 (size before relaxing)
 .debug_str     0x0000b080       0x41 code\libs\sd.a(sd_host_set_bus_width.o)
                                0x393 (size before relaxing)
 .debug_str     0x0000b0c1       0x3d code\libs\sd.a(sd_host_set_hispeed.o)
                                0x394 (size before relaxing)
 .debug_str     0x0000b0fe       0x3d code\libs\sd.a(sd_host_switch_func.o)
                                0x391 (size before relaxing)
 .debug_str     0x0000b13b       0x33 code\libs\sd.a(sd_select_card.o)
                                0x386 (size before relaxing)
 .debug_str     0x0000b16e       0x39 code\libs\sd.a(sd_send_scr.o)
                                0x38d (size before relaxing)
 .debug_str     0x0000b1a7       0x2a code\libs\sd.a(sd_chk_ctl.o)
                                0x3ab (size before relaxing)
 .debug_str     0x0000b1d1       0x51 code\libs\sd.a(sd_host_identification.o)
                                0x5f4 (size before relaxing)
 .debug_str     0x0000b222       0x41 code\libs\sd.a(mmc_host_send_op_cond.o)
                                0x117 (size before relaxing)
 .debug_str     0x0000b263       0x35 code\libs\sd.a(sd_host_app_cmd.o)
                                0x381 (size before relaxing)
 .debug_str     0x0000b298       0x46 code\libs\sd.a(sd_host_send_op_cond.o)
                                0x392 (size before relaxing)
 .debug_str     0x0000b2de      0x1d6 code\libs\usb.a(mango_dev_usb_slave.o)
                                0x9bf (size before relaxing)
 .debug_str     0x0000b4b4      0x390 code\libs\usb.a(usb_device_mount.o)
                                0xb52 (size before relaxing)
 .debug_str     0x0000b844       0x48 code\libs\usb.a(usb_device_unmount.o)
                                0x257 (size before relaxing)
 .debug_str     0x0000b88c       0x91 code\libs\usb.a(usb_slave_mic_adc.o)
                                0x5f0 (size before relaxing)
 .debug_str     0x0000b91d       0x94 code\libs\usb.a(usb_slave_spk_dac.o)
                                0x66d (size before relaxing)
 .debug_str     0x0000b9b1       0x6a code\libs\usb.a(usbs_ctl_isr.o)
                                0x5cc (size before relaxing)
 .debug_str     0x0000ba1b       0x5b code\libs\usb.a(usb_class_setting_libs.o)
                                0x5b1 (size before relaxing)
 .debug_str     0x0000ba76       0xcc code\libs\usb.a(usb_device_io.o)
                                0x836 (size before relaxing)
 .debug_str     0x0000bb42       0x4a code\libs\usb.a(usb_hid_key.o)
                                0x5af (size before relaxing)
 .debug_str     0x0000bb8c      0x125 code\libs\usb.a(usb_slave_ctl.o)
                                0xe18 (size before relaxing)
 .debug_str     0x0000bcb1      0x178 code\libs\usb.a(usb_slave_scsi_libs.o)
                                0xf22 (size before relaxing)
 .debug_str     0x0000be29       0x5e code\libs\usb.a(usb_slave_sd.o)
                                0x85f (size before relaxing)
 .debug_str     0x0000be87       0x5d code\libs\usb.a(usb_device_status.o)
                                0x21e (size before relaxing)
 .debug_str     0x0000bee4       0x4d code\libs\usb.a(usb_slave_online.o)
                                0x13f (size before relaxing)
 .debug_str     0x0000bf31      0x2ca code\libs\usb.a(mango_dev_usb.o)
                                0x88b (size before relaxing)
 .debug_str     0x0000c1fb       0x2f code\libs\usb.a(usb_global_var.o)
                                0xab9 (size before relaxing)
 .debug_str     0x0000c22a       0x7d code\libs\usb.a(usb_host_mount.o)
                                0x674 (size before relaxing)
 .debug_str     0x0000c2a7       0x3b code\libs\usb.a(usb_host_read.o)
                                0x69e (size before relaxing)
 .debug_str     0x0000c2e2       0x41 code\libs\usb.a(usb_host_unmount.o)
                                0x44d (size before relaxing)
 .debug_str     0x0000c323       0x3d code\libs\usb.a(usb_host_write.o)
                                0x648 (size before relaxing)
 .debug_str     0x0000c360       0x3f code\libs\usb.a(usb_read_remain.o)
                                0x787 (size before relaxing)
 .debug_str     0x0000c39f       0x37 code\libs\usb.a(usb_suspend.o)
                                0x421 (size before relaxing)
 .debug_str     0x0000c3d6       0x7e code\libs\usb.a(USB_Host_dev_enum_libs.o)
                                0x77c (size before relaxing)
 .debug_str     0x0000c454       0x4b code\libs\usb.a(usb_control_transfers.o)
                                0x62c (size before relaxing)
 .debug_str     0x0000c49f       0x3e code\libs\usb.a(usb_ctlXfer.o)
                                0x775 (size before relaxing)
 .debug_str     0x0000c4dd       0x61 code\libs\usb.a(usb_descriptor_parser.o)
                                0x474 (size before relaxing)
 .debug_str     0x0000c53e       0x4c code\libs\usb.a(usb_bulk_only_receive.o)
                                0x641 (size before relaxing)
 .debug_str     0x0000c58a       0x4e code\libs\usb.a(usb_bulk_only_transfer.o)
                                0x79d (size before relaxing)
 .debug_str     0x0000c5d8       0x3e code\libs\usb.a(usb_ufi_read10.o)
                                0x79a (size before relaxing)
 .debug_str     0x0000c616       0x40 code\libs\usb.a(usb_ufi_write10.o)
                                0x59e (size before relaxing)
 .debug_str     0x0000c656       0xe6 code\libs\usb.a(usbh_msd_enum.o)
                                0x86a (size before relaxing)
 .debug_str     0x0000c73c       0x4e code\libs\usb.a(usbh_msd_parser.o)
                                0x44a (size before relaxing)
 .debug_str     0x0000c78a       0x69 code\libs\usb.a(usb_host_reg_libs.o)
                                0x31c (size before relaxing)
 .debug_str     0x0000c7f3       0x47 code\libs\usb.a(usb_reg.o)
                                0x14b (size before relaxing)
 .debug_str     0x0000c83a       0x70 code\libs\usb.a(usb_host_status.o)
                                0x552 (size before relaxing)
 .debug_str     0x0000c8aa       0x88 code\libs\usb.a(usb_online.o)
                                0x249 (size before relaxing)
 .debug_str     0x0000c932       0x83 code\libs\usb.a(Descriptor.o)
                                0x2f1 (size before relaxing)
 .debug_str     0x0000c9b5       0x69 code\libs\usb.a(set_descriptor_libs.o)
                                0x61c (size before relaxing)
 .debug_str     0x0000ca1e       0x41 code\libs\usb.a(usb_host_timeout.o)
                                0x62a (size before relaxing)
 .debug_str     0x0000ca5f       0x37 code\libs\usb.a(get_max_LUN.o)
                                0x623 (size before relaxing)
 .debug_str     0x0000ca96       0x4d code\libs\usb.a(usb_host_clear_feature.o)
                                0x43d (size before relaxing)
 .debug_str     0x0000cae3       0x32 code\libs\usb.a(CBW_init.o)
                                0x561 (size before relaxing)
 .debug_str     0x0000cb15       0x46 code\libs\usb.a(usb_bulk_only_send.o)
                                0x636 (size before relaxing)
 .debug_str     0x0000cb5b       0xb9 code\libs\usb.a(usb_host_scsi_cmd_libs.o)
                                0x603 (size before relaxing)
 .debug_str     0x0000cc14      0x24e code\libs\librtos_bt15.a(os_core.o)
                                0x399 (size before relaxing)
 .debug_str     0x0000ce62       0x69 code\libs\librtos_bt15.a(os_mutex.o)
                                0x73e (size before relaxing)
 .debug_str     0x0000cecb       0x52 code\libs\librtos_bt15.a(os_sem.o)
                                0x70b (size before relaxing)
 .debug_str     0x0000cf1d      0x1e7 code\libs\librtos_bt15.a(os_task.o)
                                0x980 (size before relaxing)
 .debug_str     0x0000d104       0x49 code\libs\librtos_bt15.a(os_time.o)
                                0x6f4 (size before relaxing)
 .debug_str     0x0000d14d       0x81 code\libs\librtos_bt15.a(os_cpu_c.o)
                                0x288 (size before relaxing)
 .debug_str     0x0000d1ce      0x685 code\libs\lib_cache_vm_bt15.a(vm.o)
                                0xa90 (size before relaxing)
 .debug_str     0x0000d853      0x192 code\libs\sydf_ac46.a(syd_file.o)
                                0x4b9 (size before relaxing)
 .debug_str     0x0000d9e5      0x89f code\libs\lib_aac_decode.a(aac_main.o)
                                0xbbe (size before relaxing)
 .debug_str     0x0000e284       0x8e code\libs\lib_aac_decode.a(common.o)
                                0x18b (size before relaxing)
 .debug_str     0x0000e312      0x1a8 code\libs\lib_aac_decode.a(decoder.o)
                                0xb68 (size before relaxing)
 .debug_str     0x0000e4ba       0xf5 code\libs\lib_aac_decode.a(filtbank.o)
                                0xabc (size before relaxing)
 .debug_str     0x0000e5af       0x6e code\libs\lib_aac_decode.a(mdct.o)
                                0xa28 (size before relaxing)
 .debug_str     0x0000e61d       0x32 code\libs\lib_aac_decode.a(output.o)
                                0x65b (size before relaxing)
 .debug_str     0x0000e64f      0x363 code\libs\lib_aac_decode.a(syntax.o)
                                0xe84 (size before relaxing)
 .debug_str     0x0000e9b2       0xa6 code\libs\lib_aac_decode.a(bits.o)
                                0x1eb (size before relaxing)
 .debug_str     0x0000ea58       0x80 code\libs\lib_aac_decode.a(cfft.o)
                                0x19b (size before relaxing)
 .debug_str     0x0000ead8      0x26f code\libs\lib_aac_decode.a(huffman.o)
                                0x3f8 (size before relaxing)
 .debug_str     0x0000ed47       0x25 code\libs\lib_aac_decode.a(pulse.o)
                                0x2fc (size before relaxing)
 .debug_str     0x0000ed6c      0x26f code\libs\lib_aac_decode.a(specrec.o)
                                0xc7c (size before relaxing)
 .debug_str     0x0000efdb       0xc3 code\libs\lib_aac_decode.a(tns.o)
                                0x3ec (size before relaxing)
 .debug_str     0x0000f09e       0x59 code\libs\lib_aac_decode.a(is.o)
                                0x352 (size before relaxing)
 .debug_str     0x0000f0f7       0x1f code\libs\lib_aac_decode.a(ms.o)
                                0x325 (size before relaxing)
 .debug_str     0x0000f116       0xb8 code\libs\clk_ac46.a(clock_api.o)
                                0x217 (size before relaxing)
 .debug_str     0x0000f1ce      0x5b9 code\libs\clk_ac46.a(clock_moudle.o)
                                0x6e0 (size before relaxing)
 .debug_str     0x0000f787      0x2a8 code\libs\clk_ac46.a(clock_app.o)
                                0x5a0 (size before relaxing)
 .debug_str     0x0000fa2f      0x222 code\libs\clk_ac46.a(pll_moudle.o)
                                0x43e (size before relaxing)
 .debug_str     0x0000fc51      0x3cc code\libs\lib_flac_decode.a(mtst_flac.o)
                                0x6f3 (size before relaxing)
 .debug_str     0x0001001d      0x3a6 code\libs\lib_flac_decode.a(flacdec.o)
                                0x837 (size before relaxing)
 .debug_str     0x000103c3      0x31a code\libs\lib_encode.a(encode.o)
                               0x1948 (size before relaxing)
 .debug_str     0x000106dd       0x76 code\libs\lib_encode.a(dev_write_api.o)
                                0xc76 (size before relaxing)
 .debug_str     0x00010753       0x49 C:\JL\dv10\lib\libc.a(lib_a-memcmp.o)
                                 0xde (size before relaxing)
 .debug_str     0x0001079c       0x5d C:\JL\dv10\lib\libc.a(lib_a-memcpy.o)
                                0x105 (size before relaxing)
 .debug_str     0x000107f9       0x56 C:\JL\dv10\lib\libc.a(lib_a-memmove.o)
                                0x111 (size before relaxing)
 .debug_str     0x0001084f       0x48 C:\JL\dv10\lib\libc.a(lib_a-memset.o)
                                 0xf2 (size before relaxing)
 .debug_str     0x00010897      0x380 C:\JL\dv10\lib\libc.a(lib_a-rand.o)
                                0x499 (size before relaxing)
 .debug_str     0x00010c17       0x42 C:\JL\dv10\lib\libc.a(lib_a-strcmp.o)
                                 0xd7 (size before relaxing)
 .debug_str     0x00010c59       0x42 C:\JL\dv10\lib\libc.a(lib_a-strcpy.o)
                                 0xf9 (size before relaxing)
 .debug_str     0x00010c9b       0x42 C:\JL\dv10\lib\libc.a(lib_a-strlen.o)
                                 0xf1 (size before relaxing)
 .debug_str     0x00010cdd       0xe1 C:\JL\dv10\lib\libc.a(lib_a-strstr.o)
                                0x198 (size before relaxing)
 .debug_str     0x00010dbe       0x59 C:\JL\dv10\lib\libc.a(lib_a-impure.o)
                                0x4a9 (size before relaxing)
 .debug_str     0x00010e17       0x47 C:\JL\dv10\lib\libc.a(lib_a-memchr.o)
                                 0xf8 (size before relaxing)
 .debug_str     0x00010e5e       0x42 C:\JL\dv10\lib\libc.a(lib_a-strchr.o)
                                 0xe9 (size before relaxing)
 .debug_str     0x00010ea0       0xd9 C:\JL\dv10\lib\libgcc.a(_lshrdi3.o)
                                0x184 (size before relaxing)
 .debug_str     0x00010f79        0xa C:\JL\dv10\lib\libgcc.a(_ashldi3.o)
                                0x184 (size before relaxing)
 .debug_str     0x00010f83       0x7b C:\JL\dv10\lib\libgcc.a(_divdi3.o)
                                0x1dc (size before relaxing)
 .debug_str     0x00010ffe        0xa C:\JL\dv10\lib\libgcc.a(_udivdi3.o)
                                0x1dd (size before relaxing)
 .debug_str     0x00011008        0xa C:\JL\dv10\lib\libgcc.a(_umoddi3.o)
                                0x1dd (size before relaxing)
 .debug_str     0x00011012       0x72 C:\JL\dv10\lib\libgcc.a(divsf3.o)
                                0x113 (size before relaxing)
 .debug_str     0x00011084       0x89 C:\JL\dv10\lib\libgcc.a(subsf3.o)
                                0x146 (size before relaxing)
 .debug_str     0x0001110d       0x58 C:\JL\dv10\lib\libgcc.a(fixsfsi.o)
                                0x11f (size before relaxing)
 .debug_str     0x00011165       0x61 C:\JL\dv10\lib\libgcc.a(floatsisf.o)
                                0x128 (size before relaxing)
 .debug_str     0x00000000      0x147 C:\JL\dv10\lib\libgcc.a(_clz.o)
 .debug_str     0x000111c6        0x9 C:\JL\dv10\lib\libgcc.a(_clzsi2.o)
                                0x164 (size before relaxing)

.comment        0x00000000       0x11
 .comment       0x00000000       0x11 obj\Debug\\code\apps\bt\aec\aec_api.o
                                 0x12 (size before relaxing)
 .comment       0x00000000       0x12 obj\Debug\\code\apps\bt\btstack\bt_configs_user.o
 .comment       0x00000000       0x12 obj\Debug\\code\apps\bt\btstack\bt_key_deal.o
 .comment       0x00000000       0x12 obj\Debug\\code\apps\bt\btstack\bt_key_msg.o
 .comment       0x00000000       0x12 obj\Debug\\code\apps\bt\btstack\fcc_test.o
 .comment       0x00000000       0x12 obj\Debug\\code\apps\fm\fm_api.o
 .comment       0x00000000       0x12 obj\Debug\\code\apps\fm\fm_key.o
 .comment       0x00000000       0x12 obj\Debug\\code\apps\fm\fm_prompt.o
 .comment       0x00000000       0x12 obj\Debug\\code\apps\fm\fm_radio.o
 .comment       0x00000000       0x12 obj\Debug\\code\apps\idle\idle.o
 .comment       0x00000000       0x12 obj\Debug\\code\apps\idle\idle_key.o
 .comment       0x00000000       0x12 obj\Debug\\code\apps\linein\dev_linein.o
 .comment       0x00000000       0x12 obj\Debug\\code\apps\linein\linein.o
 .comment       0x00000000       0x12 obj\Debug\\code\apps\linein\linein_key.o
 .comment       0x00000000       0x12 obj\Debug\\code\apps\linein\linein_prompt.o
 .comment       0x00000000       0x12 obj\Debug\\code\apps\main\main.o
 .comment       0x00000000       0x12 obj\Debug\\code\apps\main\main_key.o
 .comment       0x00000000       0x12 obj\Debug\\code\apps\main\vm_api.o
 .comment       0x00000000       0x12 obj\Debug\\code\apps\music\ef_api.o
 .comment       0x00000000       0x12 obj\Debug\\code\apps\music\music.o
 .comment       0x00000000       0x12 obj\Debug\\code\apps\music\music_info.o
 .comment       0x00000000       0x12 obj\Debug\\code\apps\music\music_key.o
 .comment       0x00000000       0x12 obj\Debug\\code\apps\music\music_prompt.o
 .comment       0x00000000       0x12 obj\Debug\\code\apps\music\play_sel.o
 .comment       0x00000000       0x12 obj\Debug\\code\apps\record\rec_key.o
 .comment       0x00000000       0x12 obj\Debug\\code\apps\record\record.o
 .comment       0x00000000       0x12 obj\Debug\\code\apps\rtc\irtc.o
 .comment       0x00000000       0x12 obj\Debug\\code\apps\rtc\rtc.o
 .comment       0x00000000       0x12 obj\Debug\\code\apps\rtc\rtc_key.o
 .comment       0x00000000       0x12 obj\Debug\\code\apps\rtc\rtc_low_power.o
 .comment       0x00000000       0x12 obj\Debug\\code\apps\rtc\rtc_prompt.o
 .comment       0x00000000       0x12 obj\Debug\\code\apps\rtc\rtc_setting.o
 .comment       0x00000000       0x12 obj\Debug\\code\apps\usb_device\dev_pc.o
 .comment       0x00000000       0x12 obj\Debug\\code\apps\usb_device\pc_prompt.o
 .comment       0x00000000       0x12 obj\Debug\\code\apps\usb_device\usb_device.o
 .comment       0x00000000       0x12 obj\Debug\\code\apps\usb_device\usb_key.o
 .comment       0x00000000       0x12 obj\Debug\\code\common\ASCII_lib.o
 .comment       0x00000000       0x12 obj\Debug\\code\common\common.o
 .comment       0x00000000       0x12 obj\Debug\\code\common\dev_manage\dev_ctl.o
 .comment       0x00000000       0x12 obj\Debug\\code\common\fcvt.o
 .comment       0x00000000       0x12 obj\Debug\\code\common\file_operate\file_operate.o
 .comment       0x00000000       0x12 obj\Debug\\code\common\os_api\os_api.o
 .comment       0x00000000       0x12 obj\Debug\\code\common\os_api\task_manage.o
 .comment       0x00000000       0x12 obj\Debug\\code\common\printf-stdarg.o
 .comment       0x00000000       0x12 obj\Debug\\code\common\ui\led7_drv.o
 .comment       0x00000000       0x12 obj\Debug\\code\common\ui\led_ui_api.o
 .comment       0x00000000       0x12 obj\Debug\\code\common\ui\ui_common.o
 .comment       0x00000000       0x12 obj\Debug\\code\common\voice_prompt\voice_prompt.o
 .comment       0x00000000       0x12 obj\Debug\\code\cpu\ac46\board\board_bt15_v0.o
 .comment       0x00000000       0x12 obj\Debug\\code\cpu\ac46\driver\M62429.o
 .comment       0x00000000       0x12 obj\Debug\\code\cpu\ac46\driver\clock.o
 .comment       0x00000000       0x12 obj\Debug\\code\cpu\ac46\driver\dac.o
 .comment       0x00000000       0x12 obj\Debug\\code\cpu\ac46\driver\encoder.o
 .comment       0x00000000       0x12 obj\Debug\\code\cpu\ac46\driver\interrupt_isr.o
 .comment       0x00000000       0x12 obj\Debug\\code\cpu\ac46\driver\key.o
 .comment       0x00000000       0x12 obj\Debug\\code\cpu\ac46\driver\key_drv_ad.o
 .comment       0x00000000       0x12 obj\Debug\\code\cpu\ac46\driver\key_drv_io.o
 .comment       0x00000000       0x12 obj\Debug\\code\cpu\ac46\driver\key_drv_ir.o
 .comment       0x00000000       0x12 obj\Debug\\code\cpu\ac46\driver\key_drv_tch.o
 .comment       0x00000000       0x12 obj\Debug\\code\cpu\ac46\driver\key_voice.o
 .comment       0x00000000       0x12 obj\Debug\\code\cpu\ac46\driver\kok_detect.o
 .comment       0x00000000       0x12 obj\Debug\\code\cpu\ac46\driver\ladc.o
 .comment       0x00000000       0x12 obj\Debug\\code\cpu\ac46\driver\led.o
 .comment       0x00000000       0x12 obj\Debug\\code\cpu\ac46\driver\low_power.o
 .comment       0x00000000       0x12 obj\Debug\\code\cpu\ac46\driver\pt2313.o
 .comment       0x00000000       0x12 obj\Debug\\code\cpu\ac46\driver\sys_detect.o
 .comment       0x00000000       0x12 obj\Debug\\code\cpu\ac46\driver\timer.o
 .comment       0x00000000       0x12 obj\Debug\\code\cpu\ac46\driver\uart.o
 .comment       0x00000000       0x12 code\libs\dec_lib_ac46.a(music_api.o)
 .comment       0x00000000       0x12 code\libs\dec_lib_ac46.a(sup_dec_op.o)
 .comment       0x00000000       0x12 code\libs\dec_lib_ac46.a(decoder_phy.o)
 .comment       0x00000000       0x12 code\libs\cbuf.a(circular_buf.o)
 .comment       0x00000000       0x12 code\libs\lib_dac.a(dac_init.o)
 .comment       0x00000000       0x12 code\libs\lib_dac.a(dac_channel.o)
 .comment       0x00000000       0x12 code\libs\sys_cfg_ac46.a(pll.o)
 .comment       0x00000000       0x12 code\libs\sys_cfg_ac46.a(system_cfg_file.o)
 .comment       0x00000000       0x12 code\libs\sys_cfg_ac46.a(hwi.o)
 .comment       0x00000000       0x12 code\libs\sys_cfg_ac46.a(irq.o)
 .comment       0x00000000       0x12 code\libs\sys_cfg_ac46.a(system_cfg.o)
 .comment       0x00000000       0x12 code\libs\aec_ac46.a(aec.o)
 .comment       0x00000000       0x12 code\libs\aec_ac46.a(aec_tst_sd.o)
 .comment       0x00000000       0x12 code\libs\aec_ac46.a(cdn3_btsyn.o)
 .comment       0x00000000       0x12 code\libs\aec_ac46.a(AGC.o)
 .comment       0x00000000       0x12 code\libs\libSpeech_dection.a(Speech_detection.o)
 .comment       0x00000000       0x12 code\libs\libDAGC.a(DAGC.o)
 .comment       0x00000000       0x12 code\libs\libDAGC.a(AGC.o)
 .comment       0x00000000       0x12 code\libs\libsbcdeocode.a(new_sbcdec.o)
 .comment       0x00000000       0x12 code\libs\lib_mp3_decode.a(mtst_mp3.o)
 .comment       0x00000000       0x12 code\libs\lib_mp3_decode.a(ID3tag_skip.o)
 .comment       0x00000000       0x12 code\libs\lib_mp3_decode.a(mpegaudio.o)
 .comment       0x00000000       0x12 code\libs\lib_mp3_decode.a(layer3.o)
 .comment       0x00000000       0x12 code\libs\lib_mp3_decode.a(mpeg_ctab.o)
 .comment       0x00000000       0x12 code\libs\lib_mp3_decode.a(mpeg_synth.o)
 .comment       0x00000000       0x12 code\libs\lib_mp3_decode.a(huffman.o)
 .comment       0x00000000       0x12 code\libs\lib_mp3_decode.a(layer12.o)
 .comment       0x00000000       0x12 code\libs\lib_wav_decode.a(testwav.o)
 .comment       0x00000000       0x12 code\libs\lib_wav_decode.a(wavdec_api.o)
 .comment       0x00000000       0x12 code\libs\lib_wav_decode.a(ima_adpcm.o)
 .comment       0x00000000       0x12 code\libs\lib_wav_decode.a(msadpcmdec.o)
 .comment       0x00000000       0x12 code\libs\ef_api_ac46.a(audio_ef.o)
 .comment       0x00000000       0x12 code\libs\lib_audio_effect.a(effect_api.o)
 .comment       0x00000000       0x12 code\libs\lib_audio_effect.a(eq.o)
 .comment       0x00000000       0x12 code\libs\lib_audio_effect.a(resample.o)
 .comment       0x00000000       0x12 code\libs\lib_audio_effect.a(resample_8.o)
 .comment       0x00000000       0x12 code\libs\lib_audio_effect.a(resample_qk.o)
 .comment       0x00000000       0x12 code\libs\lib_audio_effect.a(vol.o)
 .comment       0x00000000       0x12 code\libs\lib_wma_decode.a(mtst_wma.o)
 .comment       0x00000000       0x12 code\libs\lib_wma_decode.a(wma.o)
 .comment       0x00000000       0x12 code\libs\lib_wma_decode.a(wma_huff.o)
 .comment       0x00000000       0x12 code\libs\lib_wma_decode.a(wma_tab.o)
 .comment       0x00000000       0x12 code\libs\lib_wma_decode.a(wmadec.o)
 .comment       0x00000000       0x12 code\libs\lib_wma_decode.a(asf.o)
 .comment       0x00000000       0x12 code\libs\lib_wma_decode.a(aviobuf.o)
 .comment       0x00000000       0x12 code\libs\lib_wma_decode.a(bitstream.o)
 .comment       0x00000000       0x12 code\libs\lib_wma_decode.a(mdct.o)
 .comment       0x00000000       0x12 code\libs\dev_mg_lib.a(drv_manage.o)
 .comment       0x00000000       0x12 code\libs\dev_mg_lib.a(mango_dev_cache.o)
 .comment       0x00000000       0x12 code\libs\dev_mg_lib.a(mbr.o)
 .comment       0x00000000       0x12 code\libs\dev_mg_lib.a(dev_updata_mode.o)
 .comment       0x00000000       0x12 code\libs\dev_mg_lib.a(dev_operate.o)
 .comment       0x00000000       0x12 code\libs\dev_mg_lib.a(fat_io.o)
 .comment       0x00000000       0x12 code\libs\dev_mg_lib.a(fs_io.o)
 .comment       0x00000000       0x12 code\libs\dev_mg_lib.a(logic_dev_list.o)
 .comment       0x00000000       0x12 code\libs\dev_mg_lib.a(syd_io.o)
 .comment       0x00000000       0x12 code\libs\dev_mg_lib.a(vfs.o)
 .comment       0x00000000       0x12 code\libs\libtff.a(ff_api.o)
 .comment       0x00000000       0x12 code\libs\libtff.a(tff.o)
 .comment       0x00000000       0x12 code\libs\mem_ac46.a(mem_heap.o)
 .comment       0x00000000       0x12 code\libs\mem_ac46.a(sbrk.o)
 .comment       0x00000000       0x12 code\libs\mem_ac46.a(vmalloc.o)
 .comment       0x00000000       0x12 code\libs\mem_ac46.a(pmalloc.o)
 .comment       0x00000000       0x12 code\libs\sd.a(mango_dev_sd.o)
 .comment       0x00000000       0x12 code\libs\sd.a(sd_controller_interface.o)
 .comment       0x00000000       0x12 code\libs\sd.a(sd_global_var.o)
 .comment       0x00000000       0x12 code\libs\sd.a(sd_host_read.o)
 .comment       0x00000000       0x12 code\libs\sd.a(sd_host_read_end.o)
 .comment       0x00000000       0x12 code\libs\sd.a(sd_host_unmount.o)
 .comment       0x00000000       0x12 code\libs\sd.a(sd_host_write.o)
 .comment       0x00000000       0x12 code\libs\sd.a(sd_host_write_end.o)
 .comment       0x00000000       0x12 code\libs\sd.a(sdmmc_init.o)
 .comment       0x00000000       0x12 code\libs\sd.a(suspend_sdmmc.o)
 .comment       0x00000000       0x12 code\libs\sd.a(sd_host_send_csd.o)
 .comment       0x00000000       0x12 code\libs\sd.a(sd_host_stop_trans.o)
 .comment       0x00000000       0x12 code\libs\sd.a(sd_host_hw.o)
 .comment       0x00000000       0x12 code\libs\sd.a(sd_wait_idle.o)
 .comment       0x00000000       0x12 code\libs\sd.a(sdmmc_det.o)
 .comment       0x00000000       0x12 code\libs\sd.a(sd_host_reg.o)
 .comment       0x00000000       0x12 code\libs\sd.a(sd_read_start.o)
 .comment       0x00000000       0x12 code\libs\sd.a(sd_send_command.o)
 .comment       0x00000000       0x12 code\libs\sd.a(sd_write_start.o)
 .comment       0x00000000       0x12 code\libs\sd.a(sd_host_status.o)
 .comment       0x00000000       0x12 code\libs\sd.a(sd_host_init.o)
 .comment       0x00000000       0x12 code\libs\sd.a(sd_host_mount.o)
 .comment       0x00000000       0x12 code\libs\sd.a(sd_host_timeout.o)
 .comment       0x00000000       0x12 code\libs\sd.a(sd_init.o)
 .comment       0x00000000       0x12 code\libs\sd.a(sdmmc_host_set_bus_width.o)
 .comment       0x00000000       0x12 code\libs\sd.a(sdmmc_host_set_hispeed.o)
 .comment       0x00000000       0x12 code\libs\sd.a(mmc_host_send_rca.o)
 .comment       0x00000000       0x12 code\libs\sd.a(mmc_host_set_bus_width.o)
 .comment       0x00000000       0x12 code\libs\sd.a(mmc_host_set_hispeed.o)
 .comment       0x00000000       0x12 code\libs\sd.a(sd_host_all_send_cid.o)
 .comment       0x00000000       0x12 code\libs\sd.a(sd_host_reset.o)
 .comment       0x00000000       0x12 code\libs\sd.a(sd_host_sd_status.o)
 .comment       0x00000000       0x12 code\libs\sd.a(sd_host_send_if_cond.o)
 .comment       0x00000000       0x12 code\libs\sd.a(sd_host_send_rca.o)
 .comment       0x00000000       0x12 code\libs\sd.a(sd_host_set_bus_width.o)
 .comment       0x00000000       0x12 code\libs\sd.a(sd_host_set_hispeed.o)
 .comment       0x00000000       0x12 code\libs\sd.a(sd_host_switch_func.o)
 .comment       0x00000000       0x12 code\libs\sd.a(sd_select_card.o)
 .comment       0x00000000       0x12 code\libs\sd.a(sd_send_scr.o)
 .comment       0x00000000       0x12 code\libs\sd.a(sd_chk_ctl.o)
 .comment       0x00000000       0x12 code\libs\sd.a(sd_host_identification.o)
 .comment       0x00000000       0x12 code\libs\sd.a(mmc_host_send_op_cond.o)
 .comment       0x00000000       0x12 code\libs\sd.a(sd_host_app_cmd.o)
 .comment       0x00000000       0x12 code\libs\sd.a(sd_host_send_op_cond.o)
 .comment       0x00000000       0x12 code\libs\usb.a(mango_dev_usb_slave.o)
 .comment       0x00000000       0x12 code\libs\usb.a(usb_device_mount.o)
 .comment       0x00000000       0x12 code\libs\usb.a(usb_device_unmount.o)
 .comment       0x00000000       0x12 code\libs\usb.a(usb_slave_mic_adc.o)
 .comment       0x00000000       0x12 code\libs\usb.a(usb_slave_spk_dac.o)
 .comment       0x00000000       0x12 code\libs\usb.a(usbs_ctl_isr.o)
 .comment       0x00000000       0x12 code\libs\usb.a(usb_class_setting_libs.o)
 .comment       0x00000000       0x12 code\libs\usb.a(usb_device_io.o)
 .comment       0x00000000       0x12 code\libs\usb.a(usb_hid_key.o)
 .comment       0x00000000       0x12 code\libs\usb.a(usb_slave_ctl.o)
 .comment       0x00000000       0x12 code\libs\usb.a(usb_slave_scsi_libs.o)
 .comment       0x00000000       0x12 code\libs\usb.a(usb_slave_sd.o)
 .comment       0x00000000       0x12 code\libs\usb.a(usb_device_status.o)
 .comment       0x00000000       0x12 code\libs\usb.a(usb_slave_online.o)
 .comment       0x00000000       0x12 code\libs\usb.a(mango_dev_usb.o)
 .comment       0x00000000       0x12 code\libs\usb.a(usb_global_var.o)
 .comment       0x00000000       0x12 code\libs\usb.a(usb_host_mount.o)
 .comment       0x00000000       0x12 code\libs\usb.a(usb_host_read.o)
 .comment       0x00000000       0x12 code\libs\usb.a(usb_host_unmount.o)
 .comment       0x00000000       0x12 code\libs\usb.a(usb_host_write.o)
 .comment       0x00000000       0x12 code\libs\usb.a(usb_read_remain.o)
 .comment       0x00000000       0x12 code\libs\usb.a(usb_suspend.o)
 .comment       0x00000000       0x12 code\libs\usb.a(USB_Host_dev_enum_libs.o)
 .comment       0x00000000       0x12 code\libs\usb.a(usb_control_transfers.o)
 .comment       0x00000000       0x12 code\libs\usb.a(usb_ctlXfer.o)
 .comment       0x00000000       0x12 code\libs\usb.a(usb_descriptor_parser.o)
 .comment       0x00000000       0x12 code\libs\usb.a(usb_bulk_only_receive.o)
 .comment       0x00000000       0x12 code\libs\usb.a(usb_bulk_only_transfer.o)
 .comment       0x00000000       0x12 code\libs\usb.a(usb_ufi_read10.o)
 .comment       0x00000000       0x12 code\libs\usb.a(usb_ufi_write10.o)
 .comment       0x00000000       0x12 code\libs\usb.a(usbh_msd_enum.o)
 .comment       0x00000000       0x12 code\libs\usb.a(usbh_msd_parser.o)
 .comment       0x00000000       0x12 code\libs\usb.a(usb_host_reg_libs.o)
 .comment       0x00000000       0x12 code\libs\usb.a(usb_reg.o)
 .comment       0x00000000       0x12 code\libs\usb.a(usb_host_status.o)
 .comment       0x00000000       0x12 code\libs\usb.a(usb_online.o)
 .comment       0x00000000       0x12 code\libs\usb.a(Descriptor.o)
 .comment       0x00000000       0x12 code\libs\usb.a(set_descriptor_libs.o)
 .comment       0x00000000       0x12 code\libs\usb.a(usb_host_timeout.o)
 .comment       0x00000000       0x12 code\libs\usb.a(get_max_LUN.o)
 .comment       0x00000000       0x12 code\libs\usb.a(usb_host_clear_feature.o)
 .comment       0x00000000       0x12 code\libs\usb.a(CBW_init.o)
 .comment       0x00000000       0x12 code\libs\usb.a(usb_bulk_only_send.o)
 .comment       0x00000000       0x12 code\libs\usb.a(usb_host_scsi_cmd_libs.o)
 .comment       0x00000000       0x12 code\libs\librtos_bt15.a(os_core.o)
 .comment       0x00000000       0x12 code\libs\librtos_bt15.a(os_mutex.o)
 .comment       0x00000000       0x12 code\libs\librtos_bt15.a(os_sem.o)
 .comment       0x00000000       0x12 code\libs\librtos_bt15.a(os_task.o)
 .comment       0x00000000       0x12 code\libs\librtos_bt15.a(os_time.o)
 .comment       0x00000000       0x12 code\libs\librtos_bt15.a(os_cpu_c.o)
 .comment       0x00000000       0x12 code\libs\lib_cache_vm_bt15.a(vm.o)
 .comment       0x00000000       0x12 code\libs\sydf_ac46.a(syd_file.o)
 .comment       0x00000000       0x12 code\libs\lib_fm_resample.a(FM_resample.o)
 .comment       0x00000000       0x12 code\libs\lib_fm_driver.a(fm_digital.o)
 .comment       0x00000000       0x12 code\libs\lib_fm_driver.a(fmrx_driver.o)
 .comment       0x00000000       0x12 code\libs\lib_fm_driver.a(fm_analog.o)
 .comment       0x00000000       0x12 code\libs\lib_fm_driver.a(fm_coef.o)
 .comment       0x00000000       0x12 code\libs\libBtCalling.a(BT_Calling.o)
 .comment       0x00000000       0x12 code\libs\libBtCalling.a(aecmain.o)
 .comment       0x00000000       0x12 code\libs\libBtCalling.a(ns_core.o)
 .comment       0x00000000       0x12 code\libs\libBtCalling.a(aec_core.o)
 .comment       0x00000000       0x12 code\libs\libBtCalling.a(aec_rdft.o)
 .comment       0x00000000       0x12 code\libs\lib_usb_syn.a(usb_syn.o)
 .comment       0x00000000       0x12 code\libs\libbt_bt15.a(a2dp.o)
 .comment       0x00000000       0x12 code\libs\libbt_bt15.a(avctp.o)
 .comment       0x00000000       0x12 code\libs\libbt_bt15.a(avctp_user.o)
 .comment       0x00000000       0x12 code\libs\libbt_bt15.a(avdtp.o)
 .comment       0x00000000       0x12 code\libs\libbt_bt15.a(a2dp_media_file.o)
 .comment       0x00000000       0x12 code\libs\libbt_bt15.a(h4_transport.o)
 .comment       0x00000000       0x12 code\libs\libbt_bt15.a(nfc_blueteeth.o)
 .comment       0x00000000       0x12 code\libs\libbt_bt15.a(hci.o)
 .comment       0x00000000       0x12 code\libs\libbt_bt15.a(hci_cmds.o)
 .comment       0x00000000       0x12 code\libs\libbt_bt15.a(hci_dump.o)
 .comment       0x00000000       0x12 code\libs\libbt_bt15.a(hfp_profile.o)
 .comment       0x00000000       0x12 code\libs\libbt_bt15.a(hid.o)
 .comment       0x00000000       0x12 code\libs\libbt_bt15.a(l2cap.o)
 .comment       0x00000000       0x12 code\libs\libbt_bt15.a(l2cap_signaling.o)
 .comment       0x00000000       0x12 code\libs\libbt_bt15.a(linked_list.o)
 .comment       0x00000000       0x12 code\libs\libbt_bt15.a(rfcomm.o)
 .comment       0x00000000       0x12 code\libs\libbt_bt15.a(sdp.o)
 .comment       0x00000000       0x12 code\libs\libbt_bt15.a(sdp_master.o)
 .comment       0x00000000       0x12 code\libs\libbt_bt15.a(sdp_util.o)
 .comment       0x00000000       0x12 code\libs\libbt_bt15.a(spp_profile.o)
 .comment       0x00000000       0x12 code\libs\libbt_bt15.a(utils.o)
 .comment       0x00000000       0x12 code\libs\libbt_bt15.a(bt_configs.o)
 .comment       0x00000000       0x12 code\libs\libbt_bt15.a(btstack.o)
 .comment       0x00000000       0x12 code\libs\libbt_bt15.a(phone_talking.o)
 .comment       0x00000000       0x12 code\libs\libbt_bt15.a(resource_manage.o)
 .comment       0x00000000       0x12 code\libs\libbt_bt15.a(run_loop.o)
 .comment       0x00000000       0x12 code\libs\libbt_bt15.a(spp_accel.o)
 .comment       0x00000000       0x12 code\libs\libbt_bt15.a(analog.o)
 .comment       0x00000000       0x12 code\libs\libbt_bt15.a(device_manager.o)
 .comment       0x00000000       0x12 code\libs\libbt_bt15.a(hci_bottom.o)
 .comment       0x00000000       0x12 code\libs\libbt_bt15.a(inquiry_scan.o)
 .comment       0x00000000       0x12 code\libs\libbt_bt15.a(lbuf.o)
 .comment       0x00000000       0x12 code\libs\libbt_bt15.a(link_controller.o)
 .comment       0x00000000       0x12 code\libs\libbt_bt15.a(lmp.o)
 .comment       0x00000000       0x12 code\libs\libbt_bt15.a(lmp_custom.o)
 .comment       0x00000000       0x12 code\libs\libbt_bt15.a(lmp_main.o)
 .comment       0x00000000       0x12 code\libs\libbt_bt15.a(mdm.o)
 .comment       0x00000000       0x12 code\libs\libbt_bt15.a(radio.o)
 .comment       0x00000000       0x12 code\libs\libbt_bt15.a(role_switch_page.o)
 .comment       0x00000000       0x12 code\libs\libbt_bt15.a(sync_word.o)
 .comment       0x00000000       0x12 code\libs\libbt_bt15.a(test_dut.o)
 .comment       0x00000000       0x12 code\libs\libbt_bt15.a(test_master.o)
 .comment       0x00000000       0x12 code\libs\libbt_bt15.a(vsprintf.o)
 .comment       0x00000000       0x12 code\libs\libbt_bt15.a(apple_MA_L.o)
 .comment       0x00000000       0x12 code\libs\libbt_bt15.a(hciattach_bt.o)
 .comment       0x00000000       0x12 code\libs\libbt_bt15.a(btstack_memory.o)
 .comment       0x00000000       0x12 code\libs\libbt_bt15.a(database_file.o)
 .comment       0x00000000       0x12 code\libs\libbt_bt15.a(hfp_ag_profile.o)
 .comment       0x00000000       0x12 code\libs\libbt_bt15.a(memory_pool.o)
 .comment       0x00000000       0x12 code\libs\libbt_bt15.a(remote_device_db_memory.o)
 .comment       0x00000000       0x12 code\libs\libbt_bt15.a(Bluetooth_Authentication.o)
 .comment       0x00000000       0x12 code\libs\libbt_bt15.a(Crypto_hash.o)
 .comment       0x00000000       0x12 code\libs\libbt_bt15.a(authencation.o)
 .comment       0x00000000       0x12 code\libs\libbt_bt15.a(bigint.o)
 .comment       0x00000000       0x12 code\libs\libbt_bt15.a(ecdh.o)
 .comment       0x00000000       0x12 code\libs\libbt_bt15.a(hmac.o)
 .comment       0x00000000       0x12 code\libs\libbt_bt15.a(prbs9_table.o)
 .comment       0x00000000       0x12 code\libs\libbt_bt15.a(sha256.o)
 .comment       0x00000000       0x12 code\libs\libbt_bt15.a(endian.o)
 .comment       0x00000000       0x12 code\libs\lib_btrepair.a(BT15_repair.o)
 .comment       0x00000000       0x12 code\libs\lib_aac_decode.a(aac_main.o)
 .comment       0x00000000       0x12 code\libs\lib_aac_decode.a(common.o)
 .comment       0x00000000       0x12 code\libs\lib_aac_decode.a(decoder.o)
 .comment       0x00000000       0x12 code\libs\lib_aac_decode.a(filtbank.o)
 .comment       0x00000000       0x12 code\libs\lib_aac_decode.a(mdct.o)
 .comment       0x00000000       0x12 code\libs\lib_aac_decode.a(output.o)
 .comment       0x00000000       0x12 code\libs\lib_aac_decode.a(syntax.o)
 .comment       0x00000000       0x12 code\libs\lib_aac_decode.a(bits.o)
 .comment       0x00000000       0x12 code\libs\lib_aac_decode.a(cfft.o)
 .comment       0x00000000       0x12 code\libs\lib_aac_decode.a(huffman.o)
 .comment       0x00000000       0x12 code\libs\lib_aac_decode.a(pulse.o)
 .comment       0x00000000       0x12 code\libs\lib_aac_decode.a(specrec.o)
 .comment       0x00000000       0x12 code\libs\lib_aac_decode.a(tns.o)
 .comment       0x00000000       0x12 code\libs\lib_aac_decode.a(is.o)
 .comment       0x00000000       0x12 code\libs\lib_aac_decode.a(ms.o)
 .comment       0x00000000       0x12 code\libs\libBt_a2dp_sync.a(bt_a2dp_sync.o)
 .comment       0x00000000       0x12 code\libs\libBt_a2dp_sync.a(syn_ps.o)
 .comment       0x00000000       0x12 code\libs\clk_ac46.a(clock_api.o)
 .comment       0x00000000       0x12 code\libs\clk_ac46.a(clock_moudle.o)
 .comment       0x00000000       0x12 code\libs\clk_ac46.a(clock_app.o)
 .comment       0x00000000       0x12 code\libs\clk_ac46.a(pll_moudle.o)
 .comment       0x00000000       0x12 code\libs\lib_ape_decode.a(mtst_ape.o)
 .comment       0x00000000       0x12 code\libs\lib_ape_decode.a(apedec.o)
 .comment       0x00000000       0x12 code\libs\lib_flac_decode.a(mtst_flac.o)
 .comment       0x00000000       0x12 code\libs\lib_flac_decode.a(flacdec.o)
 .comment       0x00000000       0x12 code\libs\lib_encode.a(encode.o)
 .comment       0x00000000       0x12 code\libs\lib_encode.a(dev_write_api.o)
 .comment       0x00000000       0x12 code\libs\lib_adpcm_encode.a(en_adpcm_test.o)
 .comment       0x00000000       0x12 code\libs\lib_adpcm_encode.a(en_adpcm.o)
 .comment       0x00000000       0x12 code\libs\lib_mp2_encode.a(mp2_test.o)
 .comment       0x00000000       0x12 code\libs\lib_mp2_encode.a(mp2dsp.o)
 .comment       0x00000000       0x12 code\libs\lib_mp2_encode.a(encodemp2.o)
 .comment       0x00000000       0x12 C:\JL\dv10\lib\libc.a(lib_a-memcmp.o)
 .comment       0x00000000       0x12 C:\JL\dv10\lib\libc.a(lib_a-memcpy.o)
 .comment       0x00000000       0x12 C:\JL\dv10\lib\libc.a(lib_a-memmove.o)
 .comment       0x00000000       0x12 C:\JL\dv10\lib\libc.a(lib_a-memset.o)
 .comment       0x00000000       0x12 C:\JL\dv10\lib\libc.a(lib_a-rand.o)
 .comment       0x00000000       0x12 C:\JL\dv10\lib\libc.a(lib_a-strcmp.o)
 .comment       0x00000000       0x12 C:\JL\dv10\lib\libc.a(lib_a-strcpy.o)
 .comment       0x00000000       0x12 C:\JL\dv10\lib\libc.a(lib_a-strlen.o)
 .comment       0x00000000       0x12 C:\JL\dv10\lib\libc.a(lib_a-strstr.o)
 .comment       0x00000000       0x12 C:\JL\dv10\lib\libc.a(lib_a-impure.o)
 .comment       0x00000000       0x12 C:\JL\dv10\lib\libc.a(lib_a-memchr.o)
 .comment       0x00000000       0x12 C:\JL\dv10\lib\libc.a(lib_a-strchr.o)
 .comment       0x00000000       0x12 C:\JL\dv10\lib\libgcc.a(_lshrdi3.o)
 .comment       0x00000000       0x12 C:\JL\dv10\lib\libgcc.a(_ashldi3.o)
 .comment       0x00000000       0x12 C:\JL\dv10\lib\libgcc.a(_divdi3.o)
 .comment       0x00000000       0x12 C:\JL\dv10\lib\libgcc.a(_udivdi3.o)
 .comment       0x00000000       0x12 C:\JL\dv10\lib\libgcc.a(_umoddi3.o)
 .comment       0x00000000       0x12 C:\JL\dv10\lib\libgcc.a(divsf3.o)
 .comment       0x00000000       0x12 C:\JL\dv10\lib\libgcc.a(subsf3.o)
 .comment       0x00000000       0x12 C:\JL\dv10\lib\libgcc.a(fixsfsi.o)
 .comment       0x00000000       0x12 C:\JL\dv10\lib\libgcc.a(floatsisf.o)
 .comment       0x00000000       0x12 C:\JL\dv10\lib\libgcc.a(_clz.o)
 .comment       0x00000000       0x12 C:\JL\dv10\lib\libgcc.a(_clzsi2.o)

.debug_ranges   0x00000000     0x1d70
 .debug_ranges  0x00000000       0x98 obj\Debug\\code\apps\bt\btstack\bt_key_deal.o
 .debug_ranges  0x00000098       0x30 obj\Debug\\code\apps\fm\fm_api.o
 .debug_ranges  0x000000c8       0x68 obj\Debug\\code\apps\fm\fm_radio.o
 .debug_ranges  0x00000130       0x20 obj\Debug\\code\apps\idle\idle.o
 .debug_ranges  0x00000150       0x20 obj\Debug\\code\apps\linein\linein.o
 .debug_ranges  0x00000170       0x20 obj\Debug\\code\apps\main\main.o
 .debug_ranges  0x00000190       0x20 obj\Debug\\code\apps\main\vm_api.o
 .debug_ranges  0x000001b0       0x78 obj\Debug\\code\apps\music\music.o
 .debug_ranges  0x00000228       0x18 obj\Debug\\code\apps\music\play_sel.o
 .debug_ranges  0x00000240       0x80 obj\Debug\\code\apps\record\record.o
 .debug_ranges  0x000002c0       0xb0 obj\Debug\\code\common\file_operate\file_operate.o
 .debug_ranges  0x00000370       0x28 obj\Debug\\code\common\ui\led_ui_api.o
 .debug_ranges  0x00000398       0x18 obj\Debug\\code\cpu\ac46\driver\clock.o
 .debug_ranges  0x000003b0       0x58 obj\Debug\\code\cpu\ac46\driver\key.o
 .debug_ranges  0x00000408       0x20 obj\Debug\\code\cpu\ac46\driver\uart.o
 .debug_ranges  0x00000428       0x70 code\libs\dec_lib_ac46.a(music_api.o)
 .debug_ranges  0x00000498       0x18 code\libs\dec_lib_ac46.a(decoder_phy.o)
 .debug_ranges  0x000004b0       0x18 code\libs\lib_dac.a(dac_channel.o)
 .debug_ranges  0x000004c8       0x20 code\libs\sys_cfg_ac46.a(reg.o)
 .debug_ranges  0x000004e8       0x18 code\libs\sys_cfg_ac46.a(hwi.o)
 .debug_ranges  0x00000500       0x70 code\libs\sys_cfg_ac46.a(system_cfg.o)
 .debug_ranges  0x00000570       0x28 code\libs\aec_ac46.a(aec.o)
 .debug_ranges  0x00000598       0x70 code\libs\lib_wav_decode.a(testwav.o)
 .debug_ranges  0x00000608       0x30 code\libs\lib_wav_decode.a(ima_adpcm.o)
 .debug_ranges  0x00000638       0x40 code\libs\lib_wav_decode.a(msadpcmdec.o)
 .debug_ranges  0x00000678       0x18 code\libs\ef_api_ac46.a(audio_ef.o)
 .debug_ranges  0x00000690      0x100 code\libs\dev_mg_lib.a(drv_manage.o)
 .debug_ranges  0x00000790       0x60 code\libs\dev_mg_lib.a(fs_io.o)
 .debug_ranges  0x000007f0       0xd0 code\libs\dev_mg_lib.a(logic_dev_list.o)
 .debug_ranges  0x000008c0       0x18 code\libs\dev_mg_lib.a(vfs.o)
 .debug_ranges  0x000008d8       0x60 code\libs\libtff.a(ff_api.o)
 .debug_ranges  0x00000938      0x190 code\libs\libtff.a(tff.o)
 .debug_ranges  0x00000ac8       0x20 code\libs\sd.a(sdmmc_host_set_bus_width.o)
 .debug_ranges  0x00000ae8       0x20 code\libs\usb.a(usb_slave_ctl.o)
 .debug_ranges  0x00000b08       0x58 code\libs\usb.a(usb_slave_scsi_libs.o)
 .debug_ranges  0x00000b60       0x30 code\libs\usb.a(usb_ctlXfer.o)
 .debug_ranges  0x00000b90       0x40 code\libs\usb.a(usb_bulk_only_receive.o)
 .debug_ranges  0x00000bd0       0x40 code\libs\usb.a(usb_host_reg_libs.o)
 .debug_ranges  0x00000c10       0x40 code\libs\librtos_bt15.a(os_core.o)
 .debug_ranges  0x00000c50       0x30 code\libs\librtos_bt15.a(os_task.o)
 .debug_ranges  0x00000c80      0x108 code\libs\lib_cache_vm_bt15.a(vm.o)
 .debug_ranges  0x00000d88       0x18 code\libs\sydf_ac46.a(syd_file.o)
 .debug_ranges  0x00000da0       0x18 code\libs\lib_aac_decode.a(output.o)
 .debug_ranges  0x00000db8      0x388 code\libs\lib_aac_decode.a(syntax.o)
 .debug_ranges  0x00001140       0x18 code\libs\lib_aac_decode.a(bits.o)
 .debug_ranges  0x00001158      0x100 code\libs\lib_aac_decode.a(cfft.o)
 .debug_ranges  0x00001258       0xe8 code\libs\lib_aac_decode.a(huffman.o)
 .debug_ranges  0x00001340       0xb8 code\libs\lib_aac_decode.a(specrec.o)
 .debug_ranges  0x000013f8      0x100 code\libs\lib_aac_decode.a(tns.o)
 .debug_ranges  0x000014f8       0x78 code\libs\lib_aac_decode.a(is.o)
 .debug_ranges  0x00001570       0x38 code\libs\clk_ac46.a(clock_app.o)
 .debug_ranges  0x000015a8      0x128 code\libs\lib_flac_decode.a(flacdec.o)
 .debug_ranges  0x000016d0       0xd8 C:\JL\dv10\lib\libc.a(lib_a-strstr.o)
 .debug_ranges  0x000017a8      0x158 C:\JL\dv10\lib\libgcc.a(_divdi3.o)
 .debug_ranges  0x00001900      0x168 C:\JL\dv10\lib\libgcc.a(_udivdi3.o)
 .debug_ranges  0x00001a68      0x130 C:\JL\dv10\lib\libgcc.a(_umoddi3.o)
 .debug_ranges  0x00001b98       0x50 C:\JL\dv10\lib\libgcc.a(divsf3.o)
 .debug_ranges  0x00001be8      0x120 C:\JL\dv10\lib\libgcc.a(subsf3.o)
 .debug_ranges  0x00001d08       0x20 C:\JL\dv10\lib\libgcc.a(fixsfsi.o)
 .debug_ranges  0x00001d28       0x20 C:\JL\dv10\lib\libgcc.a(floatsisf.o)
 .debug_ranges  0x00001d48       0x28 C:\JL\dv10\lib\libgcc.a(_clzsi2.o)
